Certificate:
    Data:
        Version: 3 (0x2)
        Serial Number: 3 (0x3)
    Signature Algorithm: sha1WithRSAEncryption
        Issuer: CN=NSA-FIX CA, ST=foo, C=NL/emailAddress=info@nsa-fix.com, O=Thirdman, OU=Research & Development
        Validity
            Not Before: Apr  9 12:16:31 2014 GMT
            Not After : Apr  8 12:16:31 2019 GMT
        Subject: CN=alpha-3, ST=foo6, C=fi/emailAddress=root@tradeshowhell.com, O=My Organization Name, OU=Subunit of My Large Organization
        Subject Public Key Info:
            Public Key Algorithm: rsaEncryption
                Public-Key: (4096 bit)
                Modulus:
                    00:99:c2:dd:43:fb:c7:09:a4:42:86:ad:39:b4:dd:
                    43:24:61:11:b2:76:42:b2:bb:37:5d:44:6a:3a:af:
                    46:61:1e:54:58:4b:8b:b2:10:d0:b5:37:b3:d6:ba:
                    8b:8c:59:b4:21:de:30:a9:ab:00:49:e7:66:6e:57:
                    e1:42:62:2e:a9:96:d7:31:f9:c5:bd:6d:54:d8:22:
                    3d:2e:0e:99:a8:de:18:7a:15:42:46:45:ea:80:cf:
                    a6:60:51:96:dc:70:12:b8:af:63:33:c5:84:66:7c:
                    b5:46:ab:bb:1b:3a:27:35:40:05:c6:c9:d8:44:5e:
                    40:61:64:0c:c3:db:43:f4:26:c7:40:b8:32:f8:df:
                    1d:65:f4:f0:b5:86:df:4f:f4:ad:9d:96:b7:2c:aa:
                    a0:ec:40:92:09:a9:b5:e7:c0:98:09:f9:d5:f7:65:
                    fa:88:b1:ae:16:8d:2c:15:20:ef:cc:40:be:48:86:
                    30:45:66:69:9e:d6:7d:14:b6:dc:55:8a:b7:ab:62:
                    98:5f:32:7f:c5:24:9a:cc:b2:d8:bc:a6:ff:e1:af:
                    80:d8:4e:a1:f2:e2:45:a0:49:ab:78:30:83:7f:f4:
                    fe:34:c7:8f:20:69:a7:da:be:e9:90:e3:4b:ee:ed:
                    64:f3:98:5a:3b:1c:7f:fb:47:98:c3:30:55:dd:ac:
                    ca:0d:a1:c2:63:13:4c:63:a3:4b:98:fc:2e:ff:02:
                    f6:e2:65:e3:cb:e0:be:ca:0b:9c:4e:e8:6f:4d:13:
                    9f:96:93:a8:d5:34:cf:cd:25:f8:d8:bb:8a:70:90:
                    aa:17:96:44:c2:f6:fd:28:f6:da:6a:42:52:e5:6e:
                    ca:82:f5:3c:ff:7b:99:df:08:e4:0f:0b:c6:c6:32:
                    33:0b:34:c8:90:20:f7:31:38:30:2b:6b:5e:12:11:
                    cc:ad:1d:96:c9:76:f9:a4:d4:80:c7:81:e7:ae:73:
                    fa:42:20:08:e6:a4:26:44:10:61:58:0c:88:f6:1b:
                    8b:3b:11:6c:03:7e:58:2b:bb:12:93:e4:8a:0d:8b:
                    36:1e:08:f9:60:c1:aa:43:09:ba:2a:4d:21:1a:ef:
                    dc:d2:0e:61:dc:ce:95:8f:76:3c:45:69:4f:27:46:
                    15:3f:7f:27:98:ac:3f:cc:55:cd:72:eb:64:03:77:
                    45:f3:b3:3a:59:96:7b:01:19:c0:17:9c:ed:df:fe:
                    89:68:6a:06:2c:5f:46:d7:14:21:ef:b1:fe:cb:46:
                    27:9f:a4:02:d6:68:f7:ee:b1:ab:ea:bd:4c:11:e9:
                    e8:d6:e6:ff:23:b3:dc:40:47:f4:09:4c:b5:f7:9d:
                    9e:09:f6:df:cc:d0:f8:7e:78:5a:db:77:00:a2:79:
                    1b:1d:ff
                Exponent: 65537 (0x10001)
        X509v3 extensions:
            X509v3 Subject Alternative Name: 
                DNS:amsterdam.nsa-fix.com
            X509v3 Basic Constraints: 
                CA:FALSE
            Netscape Cert Type: 
                SSL Client, SSL Server
            X509v3 Extended Key Usage: 
                TLS Web Client Authentication, TLS Web Server Authentication
            X509v3 Key Usage: 
                Digital Signature, Non Repudiation, Key Encipherment
    Signature Algorithm: sha1WithRSAEncryption
         74:93:e4:69:9b:8e:a1:eb:a2:a6:50:d6:09:09:41:34:da:a5:
         9d:60:8d:d1:74:e4:71:c1:2a:2e:19:14:2d:8e:20:17:df:8e:
         b7:fb:d0:e5:98:0d:e2:1c:84:f5:65:2d:63:41:64:fd:ae:c8:
         28:9a:26:c1:d2:cb:2c:d5:78:20:1f:33:c3:bb:de:ff:e2:b6:
         a0:54:9c:b9:4e:72:43:be:6a:ff:12:71:ed:d5:ab:7e:19:04:
         f1:dd:55:1a:9c:35:9d:03:01:e2:ee:ce:76:7d:c8:fc:b5:e6:
         7b:86:56:45:c2:bb:a4:b0:57:0c:f0:ff:df:67:eb:92:a2:83:
         b1:c5:d2:83:4c:d6:9d:0c:a2:54:2f:d2:3f:23:c9:4f:92:90:
         ee:7a:53:8a:4a:97:cd:99:d5:f0:3e:af:a2:cc:bd:88:bf:34:
         2e:80:cd:00:1e:8c:35:c7:4f:6a:ec:86:e6:4c:b6:0e:b5:5d:
         1b:76:bb:58:06:30:1d:e9:e0:6c:e1:9f:e0:be:e9:69:8b:5e:
         9f:38:9a:3a:92:5b:96:5e:d1:b7:c7:24:b4:dc:c2:12:66:d7:
         f3:17:74:3c:a1:99:87:18:2a:61:91:9a:ce:e4:f2:1e:fb:4a:
         1f:8c:f6:50:3e:38:cc:6b:23:b6:ad:54:28:6d:31:5a:be:52:
         55:59:1a:c3:cd:7d:81:e1:b0:23:46:dc:12:41:bc:0b:74:2c:
         ad:39:ef:a0:88:0c:25:d4:6d:22:0b:11:98:45:a3:49:d7:cd:
         e9:37:d9:66:f5:68:cf:d8:4a:d7:81:96:c6:b0:ee:d7:5f:40:
         83:0b:7f:ef:a6:68:f8:b8:dc:c0:45:a9:dd:fb:cf:2f:2f:0e:
         34:62:e1:b8:0c:e8:07:32:bd:37:5b:b4:28:45:f5:25:94:94:
         fe:de:a9:31:53:95:6f:4c:16:e8:78:56:58:4c:32:f1:0b:c3:
         fc:03:b9:65:39:6e:b1:b2:3a:48:e5:3f:45:cf:cb:44:08:2d:
         ba:2e:3e:9f:13:b4:46:5b:b5:e7:d4:75:f7:b4:29:1a:66:7b:
         8a:4a:d0:d4:f7:92:bc:b7:9c:e5:ed:55:57:72:e9:a4:8d:40:
         fe:41:5f:4e:50:6b:c9:c1:9f:3f:e0:6f:53:de:70:e0:c2:65:
         91:77:14:e4:11:bf:0a:86:5a:f2:6f:cb:d4:37:d1:54:88:d8:
         92:54:6f:69:fd:57:44:4a:93:70:c5:da:02:dd:25:e4:67:24:
         cd:ce:a2:4c:78:fa:0f:8b:68:63:19:39:d9:5c:be:24:11:3f:
         00:62:90:48:2b:39:47:26:e5:5b:cc:28:7c:69:2b:b4:e7:c5:
         25:d8:09:d8:66:88:6d:fe
-----BEGIN CERTIFICATE-----
MIIGDzCCA/egAwIBAgIBAzANBgkqhkiG9w0BAQUFADCBhTETMBEGA1UEAxMKTlNB
LUZJWCBDQTEMMAoGA1UECBMDZm9vMQswCQYDVQQGEwJOTDEfMB0GCSqGSIb3DQEJ
ARYQaW5mb0Buc2EtZml4LmNvbTERMA8GA1UEChMIVGhpcmRtYW4xHzAdBgNVBAsU
FlJlc2VhcmNoICYgRGV2ZWxvcG1lbnQwHhcNMTQwNDA5MTIxNjMxWhcNMTkwNDA4
MTIxNjMxWjCBnzEQMA4GA1UEAxMHYWxwaGEtMzENMAsGA1UECBMEZm9vNjELMAkG
A1UEBhMCZmkxJTAjBgkqhkiG9w0BCQEWFnJvb3RAdHJhZGVzaG93aGVsbC5jb20x
HTAbBgNVBAoTFE15IE9yZ2FuaXphdGlvbiBOYW1lMSkwJwYDVQQLEyBTdWJ1bml0
IG9mIE15IExhcmdlIE9yZ2FuaXphdGlvbjCCAiIwDQYJKoZIhvcNAQEBBQADggIP
ADCCAgoCggIBAJnC3UP7xwmkQoatObTdQyRhEbJ2QrK7N11EajqvRmEeVFhLi7IQ
0LU3s9a6i4xZtCHeMKmrAEnnZm5X4UJiLqmW1zH5xb1tVNgiPS4OmajeGHoVQkZF
6oDPpmBRltxwErivYzPFhGZ8tUaruxs6JzVABcbJ2EReQGFkDMPbQ/Qmx0C4Mvjf
HWX08LWG30/0rZ2WtyyqoOxAkgmptefAmAn51fdl+oixrhaNLBUg78xAvkiGMEVm
aZ7WfRS23FWKt6timF8yf8Ukmsyy2Lym/+GvgNhOofLiRaBJq3gwg3/0/jTHjyBp
p9q+6ZDjS+7tZPOYWjscf/tHmMMwVd2syg2hwmMTTGOjS5j8Lv8C9uJl48vgvsoL
nE7ob00Tn5aTqNU0z80l+Ni7inCQqheWRML2/Sj22mpCUuVuyoL1PP97md8I5A8L
xsYyMws0yJAg9zE4MCtrXhIRzK0dlsl2+aTUgMeB565z+kIgCOakJkQQYVgMiPYb
izsRbAN+WCu7EpPkig2LNh4I+WDBqkMJuipNIRrv3NIOYdzOlY92PEVpTydGFT9/
J5isP8xVzXLrZAN3RfOzOlmWewEZwBec7d/+iWhqBixfRtcUIe+x/stGJ5+kAtZo
9+6xq+q9TBHp6Nbm/yOz3EBH9AlMtfedngn238zQ+H54Wtt3AKJ5Gx3/AgMBAAGj
bjBsMCAGA1UdEQQZMBeCFWFtc3RlcmRhbS5uc2EtZml4LmNvbTAJBgNVHRMEAjAA
MBEGCWCGSAGG+EIBAQQEAwIGwDAdBgNVHSUEFjAUBggrBgEFBQcDAgYIKwYBBQUH
AwEwCwYDVR0PBAQDAgXgMA0GCSqGSIb3DQEBBQUAA4ICAQB0k+Rpm46h66KmUNYJ
CUE02qWdYI3RdORxwSouGRQtjiAX3463+9DlmA3iHIT1ZS1jQWT9rsgomibB0sss
1XggHzPDu97/4ragVJy5TnJDvmr/EnHt1at+GQTx3VUanDWdAwHi7s52fcj8teZ7
hlZFwruksFcM8P/fZ+uSooOxxdKDTNadDKJUL9I/I8lPkpDuelOKSpfNmdXwPq+i
zL2IvzQugM0AHow1x09q7IbmTLYOtV0bdrtYBjAd6eBs4Z/gvulpi16fOJo6kluW
XtG3xyS03MISZtfzF3Q8oZmHGCphkZrO5PIe+0ofjPZQPjjMayO2rVQobTFavlJV
WRrDzX2B4bAjRtwSQbwLdCytOe+giAwl1G0iCxGYRaNJ183pN9lm9WjP2ErXgZbG
sO7XX0CDC3/vpmj4uNzARand+88vLw40YuG4DOgHMr03W7QoRfUllJT+3qkxU5Vv
TBboeFZYTDLxC8P8A7llOW6xsjpI5T9Fz8tECC26Lj6fE7RGW7Xn1HX3tCkaZnuK
StDU95K8t5zl7VVXcumkjUD+QV9OUGvJwZ8/4G9T3nDgwmWRdxTkEb8Khlryb8vU
N9FUiNiSVG9p/VdESpNwxdoC3SXkZyTNzqJMePoPi2hjGTnZXL4kET8AYpBIKzlH
JuVbzCh8aSu058Ul2AnYZoht/g==
-----END CERTIFICATE-----
