Certificate:
    Data:
        Version: 3 (0x2)
        Serial Number: 7 (0x7)
    Signature Algorithm: sha1WithRSAEncryption
        Issuer: CN=NSA-FIX CA, ST=foo, C=NL/emailAddress=info@nsa-fix.com, O=Thirdman, OU=Research & Development
        Validity
            Not Before: Apr 11 09:36:29 2014 GMT
            Not After : Apr 10 09:36:29 2019 GMT
        Subject: CN=bravo-1, ST=foo6, C=fi/emailAddress=root@tradeshowhell.com, O=My Organization Name, OU=Subunit of My Large Organization
        Subject Public Key Info:
            Public Key Algorithm: rsaEncryption
                Public-Key: (4096 bit)
                Modulus:
                    00:dd:31:f8:cb:9f:b4:36:ff:b6:72:82:eb:2e:56:
                    e4:cb:b3:4e:78:22:17:fc:20:08:13:dc:7b:7d:11:
                    cd:99:7a:cb:40:8f:b5:36:3e:16:99:29:aa:fe:6f:
                    2d:fc:cb:bd:82:1c:b8:bd:75:16:de:e3:21:6e:61:
                    1c:e8:1e:27:e6:47:59:82:d6:cd:63:5e:2c:28:c2:
                    4a:a4:ec:ec:cc:f6:1f:a5:70:ad:b9:4f:c2:4c:03:
                    b6:54:fd:f9:ec:81:c7:9e:8b:82:8a:64:5a:d9:a3:
                    8b:be:4e:41:9b:88:e0:16:bb:8a:e6:b0:2d:3a:ca:
                    8c:2f:c9:6a:b1:da:55:78:99:97:97:68:17:96:78:
                    1c:ae:c7:cf:31:64:25:c0:57:63:88:8d:98:80:a0:
                    a1:51:15:2c:d5:c8:23:4a:3f:2b:e9:a5:db:2c:b8:
                    68:c8:29:24:8f:ab:af:1f:f2:0e:ed:fc:da:d7:5f:
                    c8:af:8f:c8:03:a2:29:51:e1:ad:51:36:1f:a0:ed:
                    d5:c9:61:d1:4f:f8:6f:1e:99:43:41:ac:41:d5:47:
                    0a:30:a5:1a:f7:be:31:e0:40:ef:59:3d:c0:a6:01:
                    85:81:09:57:61:50:9a:36:ab:6c:72:eb:00:15:a2:
                    01:f5:f1:64:e6:2c:87:52:21:62:ec:cf:35:05:c3:
                    a7:be:34:65:b3:a0:00:34:d3:e4:c3:23:7c:cb:4d:
                    c4:fb:20:2f:eb:68:2a:1b:18:61:fc:af:18:7b:67:
                    10:88:f6:e9:bd:dc:78:64:08:20:27:cb:5c:14:7f:
                    b0:23:03:9a:21:3a:2d:cd:6b:df:76:c3:14:8f:c1:
                    d2:23:11:3a:4d:db:8e:b9:9b:da:93:5d:3b:ba:2e:
                    17:f3:e0:64:36:6a:4d:a1:27:7f:be:81:8d:f4:db:
                    15:8e:53:bf:6f:c0:3a:38:81:09:6d:2a:03:dc:ec:
                    cb:83:c7:3a:06:4e:38:49:48:7b:90:a6:2e:c5:60:
                    b6:a7:c8:e4:fb:df:c7:15:33:cf:42:aa:a4:b2:cd:
                    6b:bf:4d:45:c1:f0:11:2e:27:ff:47:57:b5:c3:50:
                    37:7c:35:c7:4d:0e:d6:34:ac:b1:98:fa:2c:cf:d7:
                    79:41:f1:44:06:1c:bc:56:9c:df:e0:49:ee:7a:3b:
                    e4:63:20:c2:3e:45:c6:d9:7f:f3:e7:79:b6:2c:98:
                    7a:25:15:d8:3c:1a:9a:2a:00:69:8a:42:01:0d:ea:
                    86:0d:f2:b5:6e:29:f9:53:72:e2:d0:96:fa:78:b1:
                    fd:34:2a:d8:f7:07:e7:03:66:a7:95:79:90:e6:26:
                    db:3e:87:cb:7c:3c:c7:63:17:73:dd:5e:af:13:e8:
                    67:34:e5
                Exponent: 65537 (0x10001)
        X509v3 extensions:
            X509v3 Subject Alternative Name: 
                DNS:amsterdam.nsa-fix.com
            X509v3 Basic Constraints: 
                CA:FALSE
            Netscape Cert Type: 
                SSL Client, SSL Server
            X509v3 Extended Key Usage: 
                TLS Web Client Authentication, TLS Web Server Authentication
            X509v3 Key Usage: 
                Digital Signature, Non Repudiation, Key Encipherment
    Signature Algorithm: sha1WithRSAEncryption
         21:53:a8:da:e3:4f:5b:ae:ee:65:a1:33:dc:56:e9:1f:58:ed:
         88:c6:41:e8:1f:b2:ae:60:db:3c:ab:32:46:ac:f6:f0:3f:3b:
         48:62:0b:85:61:68:fa:84:ea:e1:21:27:55:99:e9:24:b6:23:
         5f:38:c3:ed:c3:95:41:de:84:73:9f:d1:84:f4:34:d5:90:a8:
         f7:31:9d:57:9e:e7:bf:3b:44:51:9a:b2:c9:7b:be:b2:8f:2e:
         09:c9:b1:f1:b9:1a:08:b3:8a:b8:ef:f4:a9:10:c5:18:8b:a7:
         94:aa:22:bc:04:9d:8a:9d:72:c8:bd:c6:cd:18:cc:25:93:cd:
         1e:a3:21:60:11:8b:4e:e9:34:09:e6:da:2d:cc:71:fa:39:78:
         da:13:11:73:61:54:e0:d5:9f:db:b3:e3:81:22:cf:f1:29:60:
         f0:40:ee:dc:75:c9:fe:6e:2e:d0:9d:f1:be:fa:27:58:91:91:
         51:a9:34:1f:f2:01:66:80:34:63:f3:ca:01:62:11:83:82:3a:
         71:b7:c1:76:91:69:7c:79:95:73:3e:2f:0b:d3:45:9b:8f:a1:
         04:b2:99:7e:c0:bc:d8:80:94:1f:fd:3b:20:e7:05:af:4b:8c:
         e9:13:30:e4:2a:eb:76:06:9f:52:7d:20:74:46:63:fd:dd:dd:
         67:14:f1:47:f0:4e:a6:cf:4b:f9:52:4c:85:21:ba:46:ac:1f:
         9e:3d:22:c2:f0:ee:a0:3e:d2:0f:4a:3f:cd:1b:75:55:7e:f2:
         86:e1:09:b5:70:ca:55:ce:46:cd:4a:71:31:3e:c5:de:ba:9e:
         22:0e:aa:2f:1a:38:4b:88:41:d7:78:84:59:90:71:60:1b:f1:
         8a:82:60:e7:38:df:b9:d4:d9:bc:d9:d7:c2:4d:56:37:b5:e7:
         fe:27:5d:0d:fe:3c:c7:99:26:e2:de:63:ee:e4:74:59:22:e0:
         a1:38:de:4b:d5:54:f3:21:20:2c:86:4e:56:e0:6a:74:1d:3c:
         f9:d1:31:6c:5c:de:b3:3f:e1:54:8b:46:43:64:95:6a:f6:c0:
         b5:b6:ae:03:89:32:ec:0e:5a:cf:db:ba:f4:cd:d3:83:20:76:
         8b:c9:aa:03:28:3a:94:cf:58:9b:f2:38:a7:8c:1a:d6:ae:7e:
         88:cc:ee:da:39:5d:28:ba:58:a2:3b:6a:a4:97:f5:17:3c:64:
         14:62:d4:a6:c4:0c:df:f9:38:b7:8a:9f:dd:e5:91:26:04:ba:
         12:ed:a4:c4:3f:e1:c3:ad:29:7f:08:27:52:cd:4a:ac:45:2a:
         25:8f:b8:5d:47:2a:ba:26:a7:f3:4a:b4:e0:9e:d9:70:ea:81:
         f7:80:5c:f3:7c:08:67:5d
-----BEGIN CERTIFICATE-----
MIIGDzCCA/egAwIBAgIBBzANBgkqhkiG9w0BAQUFADCBhTETMBEGA1UEAxMKTlNB
LUZJWCBDQTEMMAoGA1UECBMDZm9vMQswCQYDVQQGEwJOTDEfMB0GCSqGSIb3DQEJ
ARYQaW5mb0Buc2EtZml4LmNvbTERMA8GA1UEChMIVGhpcmRtYW4xHzAdBgNVBAsU
FlJlc2VhcmNoICYgRGV2ZWxvcG1lbnQwHhcNMTQwNDExMDkzNjI5WhcNMTkwNDEw
MDkzNjI5WjCBnzEQMA4GA1UEAxMHYnJhdm8tMTENMAsGA1UECBMEZm9vNjELMAkG
A1UEBhMCZmkxJTAjBgkqhkiG9w0BCQEWFnJvb3RAdHJhZGVzaG93aGVsbC5jb20x
HTAbBgNVBAoTFE15IE9yZ2FuaXphdGlvbiBOYW1lMSkwJwYDVQQLEyBTdWJ1bml0
IG9mIE15IExhcmdlIE9yZ2FuaXphdGlvbjCCAiIwDQYJKoZIhvcNAQEBBQADggIP
ADCCAgoCggIBAN0x+MuftDb/tnKC6y5W5MuzTngiF/wgCBPce30RzZl6y0CPtTY+
Fpkpqv5vLfzLvYIcuL11Ft7jIW5hHOgeJ+ZHWYLWzWNeLCjCSqTs7Mz2H6VwrblP
wkwDtlT9+eyBx56LgopkWtmji75OQZuI4Ba7iuawLTrKjC/JarHaVXiZl5doF5Z4
HK7HzzFkJcBXY4iNmICgoVEVLNXII0o/K+ml2yy4aMgpJI+rrx/yDu382tdfyK+P
yAOiKVHhrVE2H6Dt1clh0U/4bx6ZQ0GsQdVHCjClGve+MeBA71k9wKYBhYEJV2FQ
mjarbHLrABWiAfXxZOYsh1IhYuzPNQXDp740ZbOgADTT5MMjfMtNxPsgL+toKhsY
YfyvGHtnEIj26b3ceGQIICfLXBR/sCMDmiE6Lc1r33bDFI/B0iMROk3bjrmb2pNd
O7ouF/PgZDZqTaEnf76BjfTbFY5Tv2/AOjiBCW0qA9zsy4PHOgZOOElIe5CmLsVg
tqfI5PvfxxUzz0KqpLLNa79NRcHwES4n/0dXtcNQN3w1x00O1jSssZj6LM/XeUHx
RAYcvFac3+BJ7no75GMgwj5Fxtl/8+d5tiyYeiUV2DwamioAaYpCAQ3qhg3ytW4p
+VNy4tCW+nix/TQq2PcH5wNmp5V5kOYm2z6Hy3w8x2MXc91erxPoZzTlAgMBAAGj
bjBsMCAGA1UdEQQZMBeCFWFtc3RlcmRhbS5uc2EtZml4LmNvbTAJBgNVHRMEAjAA
MBEGCWCGSAGG+EIBAQQEAwIGwDAdBgNVHSUEFjAUBggrBgEFBQcDAgYIKwYBBQUH
AwEwCwYDVR0PBAQDAgXgMA0GCSqGSIb3DQEBBQUAA4ICAQAhU6ja409bru5loTPc
VukfWO2IxkHoH7KuYNs8qzJGrPbwPztIYguFYWj6hOrhISdVmekktiNfOMPtw5VB
3oRzn9GE9DTVkKj3MZ1Xnue/O0RRmrLJe76yjy4JybHxuRoIs4q47/SpEMUYi6eU
qiK8BJ2KnXLIvcbNGMwlk80eoyFgEYtO6TQJ5totzHH6OXjaExFzYVTg1Z/bs+OB
Is/xKWDwQO7cdcn+bi7QnfG++idYkZFRqTQf8gFmgDRj88oBYhGDgjpxt8F2kWl8
eZVzPi8L00Wbj6EEspl+wLzYgJQf/Tsg5wWvS4zpEzDkKut2Bp9SfSB0RmP93d1n
FPFH8E6mz0v5UkyFIbpGrB+ePSLC8O6gPtIPSj/NG3VVfvKG4Qm1cMpVzkbNSnEx
PsXeup4iDqovGjhLiEHXeIRZkHFgG/GKgmDnON+51Nm82dfCTVY3tef+J10N/jzH
mSbi3mPu5HRZIuChON5L1VTzISAshk5W4Gp0HTz50TFsXN6zP+FUi0ZDZJVq9sC1
tq4DiTLsDlrP27r0zdODIHaLyaoDKDqUz1ib8jinjBrWrn6IzO7aOV0ouliiO2qk
l/UXPGQUYtSmxAzf+Ti3ip/d5ZEmBLoS7aTEP+HDrSl/CCdSzUqsRSolj7hdRyq6
JqfzSrTgntlw6oH3gFzzfAhnXQ==
-----END CERTIFICATE-----
