Certificate:
    Data:
        Version: 3 (0x2)
        Serial Number: 21 (0x15)
    Signature Algorithm: sha1WithRSAEncryption
        Issuer: CN=EDON CA, ST=foo, C=fi/emailAddress=mika.penttila@gmail.com, O=Trade Show Hell, OU=IT Department
        Validity
            Not Before: Sep 15 14:08:03 2013 GMT
            Not After : Sep 14 14:08:03 2018 GMT
        Subject: CN=conference, ST=foo6, C=fi/emailAddress=root@tradeshowhell.com, O=My Organization Name, OU=Subunit of My Large Organization
        Subject Public Key Info:
            Public Key Algorithm: rsaEncryption
                Public-Key: (1024 bit)
                Modulus:
                    00:a5:99:aa:3f:ea:5a:8d:f5:28:45:6a:0b:e7:43:
                    76:2a:b0:7e:51:93:98:55:c7:d5:80:db:84:73:7d:
                    74:89:d7:85:37:36:ca:d2:7c:c3:c1:1e:c3:2f:c2:
                    05:51:4c:0f:c5:3a:e1:a0:d4:07:30:8e:f3:96:a3:
                    94:4f:b4:7b:91:90:ab:0e:c9:8f:e1:ef:27:f8:bd:
                    25:2c:37:56:d0:b8:f0:5e:ab:46:5c:36:8e:4e:6e:
                    bb:6b:45:bb:72:f0:5c:ce:76:93:71:34:17:94:50:
                    7a:2d:69:37:de:74:7e:ea:ec:4a:e1:36:9d:58:64:
                    77:17:a0:54:05:af:80:a3:8b
                Exponent: 65537 (0x10001)
        X509v3 extensions:
            X509v3 Subject Alternative Name: 
                DNS:alt.tradeshowhell.com
            X509v3 Basic Constraints: 
                CA:FALSE
            Netscape Cert Type: 
                SSL Client, SSL Server
            X509v3 Extended Key Usage: 
                TLS Web Client Authentication, TLS Web Server Authentication
            X509v3 Key Usage: 
                Digital Signature, Non Repudiation, Key Encipherment
    Signature Algorithm: sha1WithRSAEncryption
         a2:41:90:c4:20:93:e5:43:e6:e5:b4:30:97:b4:01:d2:e2:a0:
         57:13:65:ef:0a:b8:67:c6:c8:32:d9:23:9e:a4:9d:83:38:af:
         6f:65:1d:77:bc:8c:a6:8a:07:64:fe:8a:13:b3:a5:46:a7:0e:
         22:9a:b0:8c:c1:ac:00:17:6a:00:a6:c4:57:e9:d9:00:32:ad:
         06:f7:4c:df:80:b9:0b:67:62:84:92:6d:ae:ff:bd:37:80:bd:
         8c:1a:d8:90:0d:50:a2:ef:13:98:db:ef:b2:b4:11:ab:a5:ec:
         fb:85:c2:5e:5e:11:2e:32:c1:fc:60:6f:56:19:2a:b4:b1:a5:
         cf:5c:4d:fd:cd:29:d7:a5:af:d8:ad:63:00:e2:36:df:8c:eb:
         57:92:eb:64:5b:a2:22:57:fb:03:35:4a:b6:d4:36:46:e7:fb:
         46:ce:9b:9d:fb:56:6c:21:ce:b7:06:33:8d:24:22:98:b7:d4:
         ed:47:84:5e:18:08:1f:34:89:df:c5:9b:ac:39:09:ff:39:1a:
         85:e9:7b:0d:c0:86:3f:51:94:35:74:07:40:66:2c:1c:69:fb:
         c4:dd:78:44:6a:51:9e:91:c3:01:71:3b:fc:7e:c1:54:fe:1f:
         f1:36:b8:12:27:64:f1:b4:07:8d:6b:86:3a:e9:ac:2e:dd:5f:
         ef:de:69:ff
-----BEGIN CERTIFICATE-----
MIIDkDCCAnigAwIBAgIBFTANBgkqhkiG9w0BAQUFADCBhzEQMA4GA1UEAxMHRURP
TiBDQTEMMAoGA1UECBMDZm9vMQswCQYDVQQGEwJmaTEmMCQGCSqGSIb3DQEJARYX
bWlrYS5wZW50dGlsYUBnbWFpbC5jb20xGDAWBgNVBAoTD1RyYWRlIFNob3cgSGVs
bDEWMBQGA1UECxMNSVQgRGVwYXJ0bWVudDAeFw0xMzA5MTUxNDA4MDNaFw0xODA5
MTQxNDA4MDNaMIGiMRMwEQYDVQQDEwpjb25mZXJlbmNlMQ0wCwYDVQQIEwRmb282
MQswCQYDVQQGEwJmaTElMCMGCSqGSIb3DQEJARYWcm9vdEB0cmFkZXNob3doZWxs
LmNvbTEdMBsGA1UEChMUTXkgT3JnYW5pemF0aW9uIE5hbWUxKTAnBgNVBAsTIFN1
YnVuaXQgb2YgTXkgTGFyZ2UgT3JnYW5pemF0aW9uMIGfMA0GCSqGSIb3DQEBAQUA
A4GNADCBiQKBgQClmao/6lqN9ShFagvnQ3YqsH5Rk5hVx9WA24RzfXSJ14U3NsrS
fMPBHsMvwgVRTA/FOuGg1AcwjvOWo5RPtHuRkKsOyY/h7yf4vSUsN1bQuPBeq0Zc
No5ObrtrRbty8FzOdpNxNBeUUHotaTfedH7q7ErhNp1YZHcXoFQFr4CjiwIDAQAB
o24wbDAgBgNVHREEGTAXghVhbHQudHJhZGVzaG93aGVsbC5jb20wCQYDVR0TBAIw
ADARBglghkgBhvhCAQEEBAMCBsAwHQYDVR0lBBYwFAYIKwYBBQUHAwIGCCsGAQUF
BwMBMAsGA1UdDwQEAwIF4DANBgkqhkiG9w0BAQUFAAOCAQEAokGQxCCT5UPm5bQw
l7QB0uKgVxNl7wq4Z8bIMtkjnqSdgzivb2Udd7yMpooHZP6KE7OlRqcOIpqwjMGs
ABdqAKbEV+nZADKtBvdM34C5C2dihJJtrv+9N4C9jBrYkA1Qou8TmNvvsrQRq6Xs
+4XCXl4RLjLB/GBvVhkqtLGlz1xN/c0p16Wv2K1jAOI234zrV5LrZFuiIlf7AzVK
ttQ2Ruf7Rs6bnftWbCHOtwYzjSQimLfU7UeEXhgIHzSJ38WbrDkJ/zkahel7DcCG
P1GUNXQHQGYsHGn7xN14RGpRnpHDAXE7/H7BVP4f8Ta4Eidk8bQHjWuGOumsLt1f
795p/w==
-----END CERTIFICATE-----
