Certificate:
    Data:
        Version: 3 (0x2)
        Serial Number: 22 (0x16)
    Signature Algorithm: sha1WithRSAEncryption
        Issuer: CN=EDON CA, ST=foo, C=fi/emailAddress=mika.penttila@gmail.com, O=Trade Show Hell, OU=IT Department
        Validity
            Not Before: Sep 15 14:11:49 2013 GMT
            Not After : Sep 14 14:11:49 2018 GMT
        Subject: CN=edon, ST=foo6, C=fi/emailAddress=root@tradeshowhell.com, O=My Organization Name, OU=Subunit of My Large Organization
        Subject Public Key Info:
            Public Key Algorithm: rsaEncryption
                Public-Key: (1024 bit)
                Modulus:
                    00:d1:e2:9e:af:74:2c:d3:f7:75:22:1c:99:0f:11:
                    9c:4f:9b:6b:eb:ab:83:ab:d8:b5:f4:5b:cd:11:bb:
                    dd:5f:9e:46:d8:65:41:c8:7f:ac:b0:0b:d4:0a:5a:
                    40:97:c8:12:23:e6:c0:22:10:5b:52:e9:fc:b9:97:
                    04:37:4f:c7:4c:b9:e6:00:ba:cc:b8:d9:65:ef:0e:
                    28:32:eb:81:e5:ac:3e:5e:ac:97:a6:8d:ac:0b:54:
                    08:75:7b:0c:11:05:81:0e:ce:b0:af:e2:86:64:aa:
                    40:a8:45:e5:fb:3d:f5:8c:15:d3:ff:01:9d:a1:cc:
                    9c:fd:bb:0f:ac:78:d8:6f:19
                Exponent: 65537 (0x10001)
        X509v3 extensions:
            X509v3 Subject Alternative Name: 
                DNS:alt.tradeshowhell.com
            X509v3 Basic Constraints: 
                CA:FALSE
            Netscape Cert Type: 
                SSL Client, SSL Server
            X509v3 Extended Key Usage: 
                TLS Web Client Authentication, TLS Web Server Authentication
            X509v3 Key Usage: 
                Digital Signature, Non Repudiation, Key Encipherment
    Signature Algorithm: sha1WithRSAEncryption
         4c:46:66:56:03:82:fd:6d:74:a4:0e:37:f6:fe:a5:46:4f:bc:
         3d:2c:28:19:2b:92:72:0d:f6:ca:e7:62:59:dd:6d:b4:4a:70:
         6b:6b:fc:14:dc:e2:fe:e4:ab:e6:ed:80:86:2a:c3:d6:85:0a:
         74:1a:b0:e3:af:ea:10:34:55:86:5e:38:46:b0:9a:35:33:68:
         28:3b:27:d7:86:ef:e5:98:0e:03:2c:fc:5b:37:f2:21:75:94:
         94:bd:e3:8a:65:15:b9:7b:90:3c:5f:ba:01:b8:26:97:d1:e0:
         62:63:a9:a5:b3:be:f2:35:19:fd:52:82:f6:ba:4d:14:46:22:
         7a:71:7c:65:6f:d6:fc:cd:61:a3:03:52:85:24:f8:2f:20:f9:
         b9:2d:3d:20:31:25:85:d0:03:38:6c:92:f8:92:3f:1d:44:0c:
         07:77:23:20:b5:c0:bd:b7:a5:cc:bc:e2:76:9a:9e:cc:69:1e:
         41:94:53:11:aa:1e:87:94:b0:89:cf:26:3c:dc:d9:a1:69:95:
         b0:4c:a0:3d:2d:ab:00:94:86:78:c9:ba:5b:2c:6d:0c:97:39:
         9a:97:e0:51:59:1a:d0:81:21:76:89:e1:4b:fe:35:42:8b:49:
         67:26:4e:9c:6a:6d:d5:03:4b:9c:aa:8a:18:92:1c:ca:55:91:
         18:99:07:97
-----BEGIN CERTIFICATE-----
MIIDijCCAnKgAwIBAgIBFjANBgkqhkiG9w0BAQUFADCBhzEQMA4GA1UEAxMHRURP
TiBDQTEMMAoGA1UECBMDZm9vMQswCQYDVQQGEwJmaTEmMCQGCSqGSIb3DQEJARYX
bWlrYS5wZW50dGlsYUBnbWFpbC5jb20xGDAWBgNVBAoTD1RyYWRlIFNob3cgSGVs
bDEWMBQGA1UECxMNSVQgRGVwYXJ0bWVudDAeFw0xMzA5MTUxNDExNDlaFw0xODA5
MTQxNDExNDlaMIGcMQ0wCwYDVQQDEwRlZG9uMQ0wCwYDVQQIEwRmb282MQswCQYD
VQQGEwJmaTElMCMGCSqGSIb3DQEJARYWcm9vdEB0cmFkZXNob3doZWxsLmNvbTEd
MBsGA1UEChMUTXkgT3JnYW5pemF0aW9uIE5hbWUxKTAnBgNVBAsTIFN1YnVuaXQg
b2YgTXkgTGFyZ2UgT3JnYW5pemF0aW9uMIGfMA0GCSqGSIb3DQEBAQUAA4GNADCB
iQKBgQDR4p6vdCzT93UiHJkPEZxPm2vrq4Or2LX0W80Ru91fnkbYZUHIf6ywC9QK
WkCXyBIj5sAiEFtS6fy5lwQ3T8dMueYAusy42WXvDigy64HlrD5erJemjawLVAh1
ewwRBYEOzrCv4oZkqkCoReX7PfWMFdP/AZ2hzJz9uw+seNhvGQIDAQABo24wbDAg
BgNVHREEGTAXghVhbHQudHJhZGVzaG93aGVsbC5jb20wCQYDVR0TBAIwADARBglg
hkgBhvhCAQEEBAMCBsAwHQYDVR0lBBYwFAYIKwYBBQUHAwIGCCsGAQUFBwMBMAsG
A1UdDwQEAwIF4DANBgkqhkiG9w0BAQUFAAOCAQEATEZmVgOC/W10pA439v6lRk+8
PSwoGSuScg32yudiWd1ttEpwa2v8FNzi/uSr5u2AhirD1oUKdBqw46/qEDRVhl44
RrCaNTNoKDsn14bv5ZgOAyz8WzfyIXWUlL3jimUVuXuQPF+6Abgml9HgYmOppbO+
8jUZ/VKC9rpNFEYienF8ZW/W/M1howNShST4LyD5uS09IDElhdADOGyS+JI/HUQM
B3cjILXAvbelzLzidpqezGkeQZRTEaoeh5Swic8mPNzZoWmVsEygPS2rAJSGeMm6
WyxtDJc5mpfgUVka0IEhdonhS/41QotJZyZOnGpt1QNLnKqKGJIcylWRGJkHlw==
-----END CERTIFICATE-----
