Certificate:
    Data:
        Version: 3 (0x2)
        Serial Number: 24 (0x18)
    Signature Algorithm: sha1WithRSAEncryption
        Issuer: CN=EDON CA, ST=foo, C=fi/emailAddress=mika.penttila@gmail.com, O=Trade Show Hell, OU=IT Department
        Validity
            Not Before: Sep 15 14:21:40 2013 GMT
            Not After : Sep 14 14:21:40 2018 GMT
        Subject: CN=mjp, ST=foo6, C=fi/emailAddress=root@tradeshowhell.com, O=My Organization Name, OU=Subunit of My Large Organization
        Subject Public Key Info:
            Public Key Algorithm: rsaEncryption
                Public-Key: (1024 bit)
                Modulus:
                    00:bc:9c:c7:39:93:e4:08:d0:b3:5a:81:a2:0a:81:
                    19:70:b3:2d:d6:6f:e6:42:79:b9:d9:ed:20:46:3d:
                    17:01:19:4d:d3:d4:b3:fe:90:bd:26:91:f5:82:0c:
                    13:1a:9d:0b:87:d4:c1:71:98:a1:56:23:bc:3c:53:
                    dc:80:b4:ba:3f:04:72:4a:a9:cb:d2:03:54:e1:b5:
                    a6:55:1b:4b:9c:b3:23:42:0a:ee:b5:03:83:fe:bc:
                    13:29:27:e8:3f:2c:a8:41:eb:91:92:17:0a:eb:b0:
                    ef:49:b7:34:91:50:95:5c:42:f4:a4:a0:e0:d0:f4:
                    ab:6a:5f:e3:12:df:1b:d4:8d
                Exponent: 65537 (0x10001)
        X509v3 extensions:
            X509v3 Subject Alternative Name: 
                DNS:alt.tradeshowhell.com
            X509v3 Basic Constraints: 
                CA:FALSE
            Netscape Cert Type: 
                SSL Client, SSL Server
            X509v3 Extended Key Usage: 
                TLS Web Client Authentication, TLS Web Server Authentication
            X509v3 Key Usage: 
                Digital Signature, Non Repudiation, Key Encipherment
    Signature Algorithm: sha1WithRSAEncryption
         35:c5:c8:c3:e6:34:f2:21:81:f4:cf:80:4d:9f:c0:2c:09:7c:
         c4:4c:35:ec:e0:96:cf:c6:a9:48:2d:e2:5d:c3:62:b4:7a:11:
         33:e9:56:e5:59:35:2d:f4:7d:29:ff:be:87:4e:fe:29:27:c1:
         c2:72:62:bb:34:e7:f7:95:39:9c:ff:1f:32:36:3b:5b:d9:44:
         c4:99:3b:44:69:84:55:67:ac:f3:10:29:09:28:ac:ed:44:a4:
         37:6e:c6:55:7e:d5:d0:0c:2e:19:4f:e8:17:a2:1e:f0:7c:99:
         8a:b6:99:37:e9:8e:31:fc:7a:34:5d:7b:33:f2:6b:1f:8d:cf:
         87:9a:1d:be:ed:f1:79:fe:f7:90:c5:bc:56:3e:c4:5c:ed:19:
         c7:47:81:92:d2:97:e0:0d:79:39:94:dc:70:01:7b:fd:85:05:
         8f:76:1b:93:75:1e:00:0f:4f:40:88:86:a8:4f:4a:40:ee:2b:
         3e:41:4b:f7:60:72:91:f7:a7:c0:df:c7:07:ae:15:19:ed:04:
         2b:c0:6f:d7:56:f9:cb:41:c0:d0:2a:93:d9:6d:b6:8a:7d:78:
         62:be:d8:d2:bd:54:0f:b6:6f:81:97:90:cb:cc:2a:5d:22:0b:
         33:ce:a7:4f:a2:0f:c8:ee:99:18:81:27:8f:4d:d9:13:99:d1:
         49:8f:dd:8c
-----BEGIN CERTIFICATE-----
MIIDiTCCAnGgAwIBAgIBGDANBgkqhkiG9w0BAQUFADCBhzEQMA4GA1UEAxMHRURP
TiBDQTEMMAoGA1UECBMDZm9vMQswCQYDVQQGEwJmaTEmMCQGCSqGSIb3DQEJARYX
bWlrYS5wZW50dGlsYUBnbWFpbC5jb20xGDAWBgNVBAoTD1RyYWRlIFNob3cgSGVs
bDEWMBQGA1UECxMNSVQgRGVwYXJ0bWVudDAeFw0xMzA5MTUxNDIxNDBaFw0xODA5
MTQxNDIxNDBaMIGbMQwwCgYDVQQDEwNtanAxDTALBgNVBAgTBGZvbzYxCzAJBgNV
BAYTAmZpMSUwIwYJKoZIhvcNAQkBFhZyb290QHRyYWRlc2hvd2hlbGwuY29tMR0w
GwYDVQQKExRNeSBPcmdhbml6YXRpb24gTmFtZTEpMCcGA1UECxMgU3VidW5pdCBv
ZiBNeSBMYXJnZSBPcmdhbml6YXRpb24wgZ8wDQYJKoZIhvcNAQEBBQADgY0AMIGJ
AoGBALycxzmT5AjQs1qBogqBGXCzLdZv5kJ5udntIEY9FwEZTdPUs/6QvSaR9YIM
ExqdC4fUwXGYoVYjvDxT3IC0uj8Eckqpy9IDVOG1plUbS5yzI0IK7rUDg/68Eykn
6D8sqEHrkZIXCuuw70m3NJFQlVxC9KSg4ND0q2pf4xLfG9SNAgMBAAGjbjBsMCAG
A1UdEQQZMBeCFWFsdC50cmFkZXNob3doZWxsLmNvbTAJBgNVHRMEAjAAMBEGCWCG
SAGG+EIBAQQEAwIGwDAdBgNVHSUEFjAUBggrBgEFBQcDAgYIKwYBBQUHAwEwCwYD
VR0PBAQDAgXgMA0GCSqGSIb3DQEBBQUAA4IBAQA1xcjD5jTyIYH0z4BNn8AsCXzE
TDXs4JbPxqlILeJdw2K0ehEz6VblWTUt9H0p/76HTv4pJ8HCcmK7NOf3lTmc/x8y
Njtb2UTEmTtEaYRVZ6zzECkJKKztRKQ3bsZVftXQDC4ZT+gXoh7wfJmKtpk36Y4x
/Ho0XXsz8msfjc+Hmh2+7fF5/veQxbxWPsRc7RnHR4GS0pfgDXk5lNxwAXv9hQWP
dhuTdR4AD09AiIaoT0pA7is+QUv3YHKR96fA38cHrhUZ7QQrwG/XVvnLQcDQKpPZ
bbaKfXhivtjSvVQPtm+Bl5DLzCpdIgszzqdPog/I7pkYgSePTdkTmdFJj92M
-----END CERTIFICATE-----
