Certificate:
    Data:
        Version: 3 (0x2)
        Serial Number: 23 (0x17)
    Signature Algorithm: sha1WithRSAEncryption
        Issuer: CN=EDON CA, ST=foo, C=fi/emailAddress=mika.penttila@gmail.com, O=Trade Show Hell, OU=IT Department
        Validity
            Not Before: Sep 15 14:18:21 2013 GMT
            Not After : Sep 14 14:18:21 2018 GMT
        Subject: CN=pepper, ST=foo6, C=fi/emailAddress=root@tradeshowhell.com, O=My Organization Name, OU=Subunit of My Large Organization
        Subject Public Key Info:
            Public Key Algorithm: rsaEncryption
                Public-Key: (1024 bit)
                Modulus:
                    00:e5:cc:8f:eb:89:52:f0:5c:18:50:cc:52:03:01:
                    9d:59:a5:d5:c6:c3:5a:95:af:ff:eb:3b:17:5a:f0:
                    cd:67:2c:a8:ce:03:a7:be:b9:12:d0:12:18:ec:3a:
                    c3:84:40:60:25:43:bb:0e:d0:27:19:89:9d:d7:60:
                    8a:28:0d:2f:51:4a:cd:ea:f8:fb:5a:60:36:a5:f8:
                    f0:e1:a7:6a:7c:52:98:96:be:ce:4a:fa:e0:d6:97:
                    d9:9b:ce:df:a7:81:51:84:0c:fd:fe:77:e9:47:48:
                    1b:7c:f2:fd:d0:f9:23:5d:98:82:b5:58:7b:44:88:
                    23:d8:a3:87:c8:22:00:d3:e7
                Exponent: 65537 (0x10001)
        X509v3 extensions:
            X509v3 Subject Alternative Name: 
                DNS:alt.tradeshowhell.com
            X509v3 Basic Constraints: 
                CA:FALSE
            Netscape Cert Type: 
                SSL Client, SSL Server
            X509v3 Extended Key Usage: 
                TLS Web Client Authentication, TLS Web Server Authentication
            X509v3 Key Usage: 
                Digital Signature, Non Repudiation, Key Encipherment
    Signature Algorithm: sha1WithRSAEncryption
         28:c0:12:4c:a9:d7:8f:3e:07:e2:30:91:8c:48:61:c6:4f:f1:
         bb:25:10:5d:7b:65:e7:fa:9d:de:e1:d8:5a:cf:2e:50:4c:ee:
         13:02:5d:22:92:dc:ad:b0:8f:a4:2c:f2:a3:b2:58:90:54:1b:
         44:26:6e:74:49:39:db:25:96:9c:84:f1:06:b2:a3:60:a1:1e:
         d8:55:20:08:de:91:11:91:87:87:b4:c3:66:6f:66:33:11:fd:
         6d:2b:33:04:38:c0:4b:01:ad:5d:ea:90:a0:ce:db:94:46:10:
         85:8d:85:2a:2a:53:c5:48:58:bc:bc:9a:1b:e1:64:c6:68:7c:
         d9:f4:aa:3b:7c:2e:58:7d:d9:c2:a3:11:c2:90:15:ae:92:b2:
         b6:c3:79:8c:3f:d0:a3:29:a8:49:af:c6:78:d1:58:41:57:35:
         46:ca:87:4b:45:ea:87:5d:0e:97:fd:d0:3a:e7:e6:01:b2:0e:
         ed:ed:ee:52:99:e6:ed:f1:9f:7a:4a:fb:d3:c6:b1:d9:5d:98:
         d0:b5:cb:86:60:e6:9b:9b:bc:4a:f1:a0:dc:8c:3f:ac:05:8e:
         34:b0:52:4e:f9:4d:99:63:4d:4f:36:b4:8d:fa:1d:34:12:ce:
         81:b3:b1:a5:59:68:31:95:3e:cf:e0:e7:71:29:95:2b:54:14:
         d4:6e:db:98
-----BEGIN CERTIFICATE-----
MIIDjDCCAnSgAwIBAgIBFzANBgkqhkiG9w0BAQUFADCBhzEQMA4GA1UEAxMHRURP
TiBDQTEMMAoGA1UECBMDZm9vMQswCQYDVQQGEwJmaTEmMCQGCSqGSIb3DQEJARYX
bWlrYS5wZW50dGlsYUBnbWFpbC5jb20xGDAWBgNVBAoTD1RyYWRlIFNob3cgSGVs
bDEWMBQGA1UECxMNSVQgRGVwYXJ0bWVudDAeFw0xMzA5MTUxNDE4MjFaFw0xODA5
MTQxNDE4MjFaMIGeMQ8wDQYDVQQDEwZwZXBwZXIxDTALBgNVBAgTBGZvbzYxCzAJ
BgNVBAYTAmZpMSUwIwYJKoZIhvcNAQkBFhZyb290QHRyYWRlc2hvd2hlbGwuY29t
MR0wGwYDVQQKExRNeSBPcmdhbml6YXRpb24gTmFtZTEpMCcGA1UECxMgU3VidW5p
dCBvZiBNeSBMYXJnZSBPcmdhbml6YXRpb24wgZ8wDQYJKoZIhvcNAQEBBQADgY0A
MIGJAoGBAOXMj+uJUvBcGFDMUgMBnVml1cbDWpWv/+s7F1rwzWcsqM4Dp765EtAS
GOw6w4RAYCVDuw7QJxmJnddgiigNL1FKzer4+1pgNqX48OGnanxSmJa+zkr64NaX
2ZvO36eBUYQM/f536UdIG3zy/dD5I12YgrVYe0SII9ijh8giANPnAgMBAAGjbjBs
MCAGA1UdEQQZMBeCFWFsdC50cmFkZXNob3doZWxsLmNvbTAJBgNVHRMEAjAAMBEG
CWCGSAGG+EIBAQQEAwIGwDAdBgNVHSUEFjAUBggrBgEFBQcDAgYIKwYBBQUHAwEw
CwYDVR0PBAQDAgXgMA0GCSqGSIb3DQEBBQUAA4IBAQAowBJMqdePPgfiMJGMSGHG
T/G7JRBde2Xn+p3e4dhazy5QTO4TAl0iktytsI+kLPKjsliQVBtEJm50STnbJZac
hPEGsqNgoR7YVSAI3pERkYeHtMNmb2YzEf1tKzMEOMBLAa1d6pCgztuURhCFjYUq
KlPFSFi8vJob4WTGaHzZ9Ko7fC5YfdnCoxHCkBWukrK2w3mMP9CjKahJr8Z40VhB
VzVGyodLReqHXQ6X/dA65+YBsg7t7e5Smebt8Z96SvvTxrHZXZjQtcuGYOabm7xK
8aDcjD+sBY40sFJO+U2ZY01PNrSN+h00Es6Bs7GlWWgxlT7P4OdxKZUrVBTUbtuY
-----END CERTIFICATE-----
