Certificate:
    Data:
        Version: 3 (0x2)
        Serial Number: 18 (0x12)
    Signature Algorithm: sha1WithRSAEncryption
        Issuer: CN=EDON CA, ST=foo, C=fi/emailAddress=mika.penttila@gmail.com, O=Trade Show Hell, OU=IT Department
        Validity
            Not Before: Jun 29 06:05:08 2013 GMT
            Not After : Jun 28 06:05:08 2018 GMT
        Subject: CN=server6, ST=foo6, C=fi/emailAddress=root@tradeshowhell.com, O=My Organization Name, OU=Subunit of My Large Organization
        Subject Public Key Info:
            Public Key Algorithm: rsaEncryption
                Public-Key: (1024 bit)
                Modulus:
                    00:ba:67:f8:c8:1f:dc:f3:d5:0d:52:77:23:c4:df:
                    c2:5a:19:8b:8d:30:4f:6b:69:e9:d1:b2:a3:56:cc:
                    7a:a6:78:64:6c:b1:1f:36:91:62:fc:29:bf:cb:48:
                    7c:1b:d5:ef:12:70:ef:e8:ba:a1:00:99:ce:9e:c6:
                    84:ad:5b:2a:d8:fb:a6:30:ee:9c:c8:4d:d3:ca:09:
                    b9:6c:d9:f8:02:0b:14:bd:27:e5:de:f6:4b:d7:97:
                    68:70:4c:1d:e9:98:33:78:2e:73:b3:89:97:5c:2e:
                    8c:44:00:e9:25:60:3b:81:2f:9c:b6:d3:0e:28:c6:
                    1e:45:ed:b1:1e:25:a3:16:71
                Exponent: 65537 (0x10001)
        X509v3 extensions:
            X509v3 Subject Alternative Name: 
                DNS:alt.tradeshowhell.com
            X509v3 Basic Constraints: 
                CA:FALSE
            Netscape Cert Type: 
                SSL Client, SSL Server
            X509v3 Extended Key Usage: 
                TLS Web Client Authentication, TLS Web Server Authentication
            X509v3 Key Usage: 
                Digital Signature, Non Repudiation, Key Encipherment
    Signature Algorithm: sha1WithRSAEncryption
         45:03:4c:3f:7f:bf:b3:64:01:9f:da:0b:ac:9e:21:05:79:f2:
         98:82:be:46:1d:cb:52:44:be:72:2b:d8:45:57:81:9a:c4:a3:
         e9:25:17:67:6a:bb:e8:22:42:01:f0:de:90:3f:16:f8:e7:ea:
         82:42:ae:8d:dd:91:92:49:86:68:4a:ec:c7:30:00:fb:79:d8:
         a3:49:61:a2:17:53:4b:c9:a1:b9:4f:70:66:a5:16:9a:09:88:
         a4:c3:87:7b:1b:8f:ff:1f:65:19:ed:a8:4b:76:34:9c:d8:1e:
         88:c0:10:74:2f:5a:13:77:a5:b3:0e:e7:30:7a:43:d7:1b:f2:
         a4:7a:5b:c6:7e:ac:53:62:52:5b:7f:cd:6d:39:dc:ee:61:e4:
         f2:ec:0d:0f:15:c2:43:5a:9b:1f:32:61:78:ad:69:ac:23:72:
         35:bd:50:e9:ac:f3:95:b9:58:19:d9:71:2d:8d:83:56:65:3e:
         0b:98:ee:af:dd:57:9f:d6:5e:ed:e2:03:46:a3:f8:db:5f:84:
         6d:9d:5f:33:86:ea:68:22:a1:c1:cb:89:fe:03:e3:aa:ca:8e:
         8a:ed:90:dc:94:36:34:3c:98:c2:f1:a9:47:0b:e5:58:28:4d:
         7f:f2:0c:cc:89:a5:a5:0e:7b:40:29:26:21:c4:d9:76:42:38:
         53:6a:4a:46
-----BEGIN CERTIFICATE-----
MIIDjTCCAnWgAwIBAgIBEjANBgkqhkiG9w0BAQUFADCBhzEQMA4GA1UEAxMHRURP
TiBDQTEMMAoGA1UECBMDZm9vMQswCQYDVQQGEwJmaTEmMCQGCSqGSIb3DQEJARYX
bWlrYS5wZW50dGlsYUBnbWFpbC5jb20xGDAWBgNVBAoTD1RyYWRlIFNob3cgSGVs
bDEWMBQGA1UECxMNSVQgRGVwYXJ0bWVudDAeFw0xMzA2MjkwNjA1MDhaFw0xODA2
MjgwNjA1MDhaMIGfMRAwDgYDVQQDEwdzZXJ2ZXI2MQ0wCwYDVQQIEwRmb282MQsw
CQYDVQQGEwJmaTElMCMGCSqGSIb3DQEJARYWcm9vdEB0cmFkZXNob3doZWxsLmNv
bTEdMBsGA1UEChMUTXkgT3JnYW5pemF0aW9uIE5hbWUxKTAnBgNVBAsTIFN1YnVu
aXQgb2YgTXkgTGFyZ2UgT3JnYW5pemF0aW9uMIGfMA0GCSqGSIb3DQEBAQUAA4GN
ADCBiQKBgQC6Z/jIH9zz1Q1SdyPE38JaGYuNME9raenRsqNWzHqmeGRssR82kWL8
Kb/LSHwb1e8ScO/ouqEAmc6exoStWyrY+6Yw7pzITdPKCbls2fgCCxS9J+Xe9kvX
l2hwTB3pmDN4LnOziZdcLoxEAOklYDuBL5y20w4oxh5F7bEeJaMWcQIDAQABo24w
bDAgBgNVHREEGTAXghVhbHQudHJhZGVzaG93aGVsbC5jb20wCQYDVR0TBAIwADAR
BglghkgBhvhCAQEEBAMCBsAwHQYDVR0lBBYwFAYIKwYBBQUHAwIGCCsGAQUFBwMB
MAsGA1UdDwQEAwIF4DANBgkqhkiG9w0BAQUFAAOCAQEARQNMP3+/s2QBn9oLrJ4h
BXnymIK+Rh3LUkS+civYRVeBmsSj6SUXZ2q76CJCAfDekD8W+OfqgkKujd2RkkmG
aErsxzAA+3nYo0lhohdTS8mhuU9wZqUWmgmIpMOHexuP/x9lGe2oS3Y0nNgeiMAQ
dC9aE3elsw7nMHpD1xvypHpbxn6sU2JSW3/NbTnc7mHk8uwNDxXCQ1qbHzJheK1p
rCNyNb1Q6azzlblYGdlxLY2DVmU+C5jur91Xn9Ze7eIDRqP421+EbZ1fM4bqaCKh
wcuJ/gPjqsqOiu2Q3JQ2NDyYwvGpRwvlWChNf/IMzImlpQ57QCkmIcTZdkI4U2pK
Rg==
-----END CERTIFICATE-----
