Certificate:
    Data:
        Version: 3 (0x2)
        Serial Number: 17 (0x11)
    Signature Algorithm: sha1WithRSAEncryption
        Issuer: CN=EDON CA, ST=foo, C=fi/emailAddress=mika.penttila@gmail.com, O=Trade Show Hell, OU=IT Department
        Validity
            Not Before: Jun 29 06:04:10 2013 GMT
            Not After : Jun 28 06:04:10 2018 GMT
        Subject: CN=server5, ST=foo5, C=fi/emailAddress=root@tradeshowhell.com, O=My Organization Name, OU=Subunit of My Large Organization
        Subject Public Key Info:
            Public Key Algorithm: rsaEncryption
                Public-Key: (1024 bit)
                Modulus:
                    00:dc:53:ce:f9:1d:1d:d8:67:29:e9:0d:f4:5c:5c:
                    27:42:e3:3c:65:4e:35:f3:11:4b:94:93:b6:d4:fe:
                    81:df:90:3f:63:f7:db:f0:01:50:12:40:b7:d1:90:
                    e3:1f:46:cf:de:70:bb:2d:c4:94:8c:c3:05:c9:8a:
                    35:ec:17:45:3a:28:a2:c2:93:9a:0a:2e:56:51:15:
                    32:01:45:fe:5a:82:b2:86:da:b5:2d:2f:fa:de:75:
                    0c:33:3b:7b:85:a0:ad:aa:da:be:cd:3d:03:12:89:
                    ea:c7:41:ec:54:d9:c0:68:53:5b:fa:f1:6b:73:90:
                    a8:e9:2c:7b:ba:c5:c3:af:43
                Exponent: 65537 (0x10001)
        X509v3 extensions:
            X509v3 Subject Alternative Name: 
                DNS:alt.tradeshowhell.com
            X509v3 Basic Constraints: 
                CA:FALSE
            Netscape Cert Type: 
                SSL Client, SSL Server
            X509v3 Extended Key Usage: 
                TLS Web Client Authentication, TLS Web Server Authentication
            X509v3 Key Usage: 
                Digital Signature, Non Repudiation, Key Encipherment
    Signature Algorithm: sha1WithRSAEncryption
         4b:95:02:bb:29:b6:8f:6e:e9:7e:41:67:63:2d:a9:80:0f:f4:
         4f:e9:21:f9:6f:1a:b8:b7:85:d2:b0:bb:66:a3:04:24:32:70:
         49:37:cb:18:36:6b:83:0f:ca:97:20:17:04:64:e8:89:d6:c5:
         a1:0b:0b:f5:9a:44:90:61:91:8a:d7:c9:8b:4d:07:2a:7d:1b:
         83:d7:62:f6:3e:b1:7c:f1:e5:6d:e7:c5:7c:a0:7a:f1:cf:6b:
         80:2e:cf:f1:97:30:58:1c:3f:eb:ac:e9:df:52:a0:f1:3d:7a:
         e3:25:20:8d:91:24:ca:fd:47:6e:a6:a7:62:f0:1d:4d:66:f5:
         b7:60:2c:03:d8:70:cb:3d:bd:46:d1:f5:31:83:65:ab:0c:df:
         6c:c0:62:05:21:dc:a2:c0:d9:36:6b:77:f4:8c:85:d0:0e:2d:
         ad:d9:69:5e:52:f7:f2:48:cc:6b:5b:5c:fa:05:ea:a7:3a:59:
         57:d9:89:86:fa:46:d2:ea:9a:62:31:6e:7b:d0:e3:76:79:87:
         3f:97:81:17:ca:e4:11:54:b4:ea:f3:c1:11:5c:67:39:ee:84:
         10:db:74:15:7e:16:cc:b3:1a:59:b3:4e:92:72:af:ea:52:c3:
         c5:85:60:6e:fd:d5:27:82:2a:52:b1:47:a2:8e:16:70:c5:3f:
         cc:0d:c9:df
-----BEGIN CERTIFICATE-----
MIIDjTCCAnWgAwIBAgIBETANBgkqhkiG9w0BAQUFADCBhzEQMA4GA1UEAxMHRURP
TiBDQTEMMAoGA1UECBMDZm9vMQswCQYDVQQGEwJmaTEmMCQGCSqGSIb3DQEJARYX
bWlrYS5wZW50dGlsYUBnbWFpbC5jb20xGDAWBgNVBAoTD1RyYWRlIFNob3cgSGVs
bDEWMBQGA1UECxMNSVQgRGVwYXJ0bWVudDAeFw0xMzA2MjkwNjA0MTBaFw0xODA2
MjgwNjA0MTBaMIGfMRAwDgYDVQQDEwdzZXJ2ZXI1MQ0wCwYDVQQIEwRmb281MQsw
CQYDVQQGEwJmaTElMCMGCSqGSIb3DQEJARYWcm9vdEB0cmFkZXNob3doZWxsLmNv
bTEdMBsGA1UEChMUTXkgT3JnYW5pemF0aW9uIE5hbWUxKTAnBgNVBAsTIFN1YnVu
aXQgb2YgTXkgTGFyZ2UgT3JnYW5pemF0aW9uMIGfMA0GCSqGSIb3DQEBAQUAA4GN
ADCBiQKBgQDcU875HR3YZynpDfRcXCdC4zxlTjXzEUuUk7bU/oHfkD9j99vwAVAS
QLfRkOMfRs/ecLstxJSMwwXJijXsF0U6KKLCk5oKLlZRFTIBRf5agrKG2rUtL/re
dQwzO3uFoK2q2r7NPQMSierHQexU2cBoU1v68WtzkKjpLHu6xcOvQwIDAQABo24w
bDAgBgNVHREEGTAXghVhbHQudHJhZGVzaG93aGVsbC5jb20wCQYDVR0TBAIwADAR
BglghkgBhvhCAQEEBAMCBsAwHQYDVR0lBBYwFAYIKwYBBQUHAwIGCCsGAQUFBwMB
MAsGA1UdDwQEAwIF4DANBgkqhkiG9w0BAQUFAAOCAQEAS5UCuym2j27pfkFnYy2p
gA/0T+kh+W8auLeF0rC7ZqMEJDJwSTfLGDZrgw/KlyAXBGToidbFoQsL9ZpEkGGR
itfJi00HKn0bg9di9j6xfPHlbefFfKB68c9rgC7P8ZcwWBw/66zp31Kg8T164yUg
jZEkyv1HbqanYvAdTWb1t2AsA9hwyz29RtH1MYNlqwzfbMBiBSHcosDZNmt39IyF
0A4trdlpXlL38kjMa1tc+gXqpzpZV9mJhvpG0uqaYjFue9DjdnmHP5eBF8rkEVS0
6vPBEVxnOe6EENt0FX4WzLMaWbNOknKv6lLDxYVgbv3VJ4IqUrFHoo4WcMU/zA3J
3w==
-----END CERTIFICATE-----
