Certificate:
    Data:
        Version: 3 (0x2)
        Serial Number: 5 (0x5)
    Signature Algorithm: sha1WithRSAEncryption
        Issuer: CN=NSA-FIX CA, ST=foo, C=NL/emailAddress=info@nsa-fix.com, O=Thirdman, OU=Research & Development
        Validity
            Not Before: Apr  9 12:18:28 2014 GMT
            Not After : Apr  8 12:18:28 2019 GMT
        Subject: CN=alpha-5, ST=foo6, C=fi/emailAddress=root@tradeshowhell.com, O=My Organization Name, OU=Subunit of My Large Organization
        Subject Public Key Info:
            Public Key Algorithm: rsaEncryption
                Public-Key: (4096 bit)
                Modulus:
                    00:c5:9e:b1:cf:a6:ff:e0:ea:a5:17:ba:88:1b:b4:
                    02:38:17:a7:a7:75:53:6a:36:3f:fe:2b:b8:d6:f2:
                    1c:3a:5a:85:3a:c3:52:e5:07:bc:ac:d3:57:18:39:
                    2a:de:2d:2c:20:b0:ae:0c:4d:e4:68:6c:b5:37:86:
                    0d:18:c4:95:55:b2:26:1b:64:9b:ef:7e:d4:6e:53:
                    f3:0e:00:f5:e1:e4:dc:3b:c7:45:36:e7:c0:f6:e9:
                    a9:4c:5c:b2:a2:df:4e:bb:e0:3f:71:05:f2:3c:bb:
                    7e:90:26:98:08:eb:ab:19:46:a9:13:c8:19:6a:9e:
                    3a:3c:ac:de:82:a6:38:8f:60:a6:6d:d7:23:6e:bf:
                    70:0c:15:48:bb:fb:cd:76:26:78:06:49:0a:2f:97:
                    77:60:88:29:32:f7:19:50:d1:0c:cb:0b:81:8c:79:
                    9d:c3:55:59:34:f8:6f:cc:8f:8f:ff:a4:d6:b0:ef:
                    9c:4c:df:f6:37:bf:3c:2c:fc:1b:40:94:76:d9:49:
                    62:b3:1d:0c:67:4f:39:70:d4:00:ec:ff:a6:8c:ef:
                    4d:2d:fa:88:d4:8c:f3:4c:ce:f1:e2:01:2f:c5:1d:
                    4e:c8:a9:75:b2:79:37:19:fa:21:b7:c3:1a:2f:ef:
                    29:0f:39:ee:ff:61:72:19:e2:4f:31:ad:59:3f:e5:
                    ac:1d:3e:cf:2c:0e:d9:dd:1b:2f:58:26:84:08:0e:
                    69:06:4c:20:bb:4e:8e:df:a4:38:d8:48:aa:87:85:
                    5a:dd:9a:1f:05:6e:bd:63:63:d3:27:3b:d0:cf:08:
                    b8:7f:ee:a1:08:9b:be:5c:d9:29:8c:bf:9f:0f:ce:
                    34:64:c1:f6:c2:1c:da:b2:a5:c6:83:04:65:1a:b3:
                    b9:67:58:a5:e2:66:f9:db:5b:52:27:2b:e6:77:6a:
                    f1:14:5e:70:a4:ae:f2:f6:23:a4:d6:7a:19:a6:f3:
                    9b:a7:42:26:2b:22:02:70:02:dc:4d:98:62:00:bc:
                    da:c7:28:6e:77:06:a6:48:b1:ca:09:07:40:8a:c8:
                    5f:42:60:cb:35:fe:b9:fc:f2:66:72:fc:ac:57:d7:
                    ed:57:fa:18:a7:98:4a:c7:87:e7:d2:d0:4a:ff:f3:
                    d7:1c:bd:85:0b:f2:1c:cf:e2:4e:b7:9e:6d:03:9f:
                    46:76:6b:cd:ed:f7:80:f3:cd:ac:e9:8a:20:d4:7d:
                    c1:6a:85:35:78:ba:87:5f:e7:98:7c:55:e7:36:41:
                    3a:a7:8f:26:d9:76:e4:f7:52:13:80:5b:73:d6:4b:
                    d4:f5:95:a3:78:11:79:90:a6:19:79:9b:d7:2d:03:
                    ae:73:03:32:a0:82:69:63:a7:d6:36:6d:58:f1:4d:
                    d9:d0:59
                Exponent: 65537 (0x10001)
        X509v3 extensions:
            X509v3 Subject Alternative Name: 
                DNS:amsterdam.nsa-fix.com
            X509v3 Basic Constraints: 
                CA:FALSE
            Netscape Cert Type: 
                SSL Client, SSL Server
            X509v3 Extended Key Usage: 
                TLS Web Client Authentication, TLS Web Server Authentication
            X509v3 Key Usage: 
                Digital Signature, Non Repudiation, Key Encipherment
    Signature Algorithm: sha1WithRSAEncryption
         af:b1:32:4e:bd:ee:0b:aa:3d:8d:35:bc:f9:c2:c5:9d:d7:cd:
         79:8a:1c:aa:be:bd:12:0b:7f:cd:62:18:86:ee:46:b3:75:52:
         39:e7:d5:47:8d:c5:37:02:62:63:c8:11:4a:3c:03:80:b1:99:
         bf:1d:d7:10:ab:8b:3f:6f:12:36:df:cb:15:0d:20:69:09:ae:
         27:46:28:42:2b:05:42:4a:7e:ce:17:7e:43:b4:85:b3:87:7c:
         ea:31:a4:b0:71:5d:96:92:3c:44:be:26:3e:99:b5:83:e1:e5:
         c7:2d:6a:59:97:77:f7:11:2a:a5:7b:62:dd:0d:c2:b2:59:02:
         f3:04:98:eb:66:74:18:ba:93:40:b8:fb:28:c6:b2:ad:3e:03:
         be:6f:da:30:e7:f2:34:46:9f:53:aa:a6:39:d3:d3:38:ec:ac:
         ff:b4:27:c9:18:8f:0f:79:6c:fb:02:e0:15:af:2e:9f:17:b5:
         5d:82:40:82:0d:37:b2:f0:84:e1:8a:83:a6:b6:58:da:03:cc:
         12:58:eb:cf:6f:6f:da:af:e4:c3:a8:81:44:20:fd:14:15:42:
         64:6b:93:d8:a6:76:dd:24:5f:9b:10:1e:6d:62:7d:37:80:2b:
         79:e0:91:ef:0d:7f:c3:a5:0d:a8:d4:2b:8d:17:80:49:a1:ff:
         e8:66:2e:c0:8e:5f:d8:a9:2e:fc:6c:8f:38:73:0e:d9:ef:0d:
         e9:f5:26:7f:e5:ed:47:0e:0d:e3:4c:ac:78:54:a2:3e:9b:c0:
         ae:fc:0b:a5:3b:33:95:23:41:d9:51:38:a6:01:ab:1b:64:d4:
         57:b1:3b:28:fc:f9:c4:17:98:6a:86:7e:53:9c:55:a2:30:46:
         d8:5c:2f:a1:e8:d9:db:a3:69:7a:97:a2:1b:27:d1:f8:b9:83:
         d9:0f:eb:63:c6:2f:3f:b0:bd:35:73:7b:26:90:f2:29:d0:06:
         3d:3d:27:87:8a:eb:8e:a3:d2:55:74:43:fb:ea:60:cc:d2:90:
         84:2a:6c:c8:21:d5:89:6f:91:65:b1:cf:2f:9f:cc:1f:6d:b7:
         cb:e1:af:8b:4a:a1:d5:02:30:55:8e:6b:1f:4e:34:cc:64:83:
         57:a7:a8:cd:f4:5e:01:21:04:9f:8b:0f:3b:89:8e:93:d1:e2:
         d4:79:3b:f6:8f:fb:41:9d:00:1e:9b:b6:94:d0:05:34:b3:2b:
         fe:af:ed:a6:f4:48:73:b1:6e:0c:88:65:fb:04:5e:8c:dd:7d:
         c5:9f:79:fe:ed:00:ce:47:28:ed:3a:74:11:a4:c2:08:69:17:
         d4:a3:a1:4b:51:ff:4e:ab:fe:d3:b8:35:3e:03:88:f3:cc:96:
         1c:24:aa:a9:20:a7:e2:fc
-----BEGIN CERTIFICATE-----
MIIGDzCCA/egAwIBAgIBBTANBgkqhkiG9w0BAQUFADCBhTETMBEGA1UEAxMKTlNB
LUZJWCBDQTEMMAoGA1UECBMDZm9vMQswCQYDVQQGEwJOTDEfMB0GCSqGSIb3DQEJ
ARYQaW5mb0Buc2EtZml4LmNvbTERMA8GA1UEChMIVGhpcmRtYW4xHzAdBgNVBAsU
FlJlc2VhcmNoICYgRGV2ZWxvcG1lbnQwHhcNMTQwNDA5MTIxODI4WhcNMTkwNDA4
MTIxODI4WjCBnzEQMA4GA1UEAxMHYWxwaGEtNTENMAsGA1UECBMEZm9vNjELMAkG
A1UEBhMCZmkxJTAjBgkqhkiG9w0BCQEWFnJvb3RAdHJhZGVzaG93aGVsbC5jb20x
HTAbBgNVBAoTFE15IE9yZ2FuaXphdGlvbiBOYW1lMSkwJwYDVQQLEyBTdWJ1bml0
IG9mIE15IExhcmdlIE9yZ2FuaXphdGlvbjCCAiIwDQYJKoZIhvcNAQEBBQADggIP
ADCCAgoCggIBAMWesc+m/+DqpRe6iBu0AjgXp6d1U2o2P/4ruNbyHDpahTrDUuUH
vKzTVxg5Kt4tLCCwrgxN5GhstTeGDRjElVWyJhtkm+9+1G5T8w4A9eHk3DvHRTbn
wPbpqUxcsqLfTrvgP3EF8jy7fpAmmAjrqxlGqRPIGWqeOjys3oKmOI9gpm3XI26/
cAwVSLv7zXYmeAZJCi+Xd2CIKTL3GVDRDMsLgYx5ncNVWTT4b8yPj/+k1rDvnEzf
9je/PCz8G0CUdtlJYrMdDGdPOXDUAOz/pozvTS36iNSM80zO8eIBL8UdTsipdbJ5
Nxn6IbfDGi/vKQ857v9hchniTzGtWT/lrB0+zywO2d0bL1gmhAgOaQZMILtOjt+k
ONhIqoeFWt2aHwVuvWNj0yc70M8IuH/uoQibvlzZKYy/nw/ONGTB9sIc2rKlxoME
ZRqzuWdYpeJm+dtbUicr5ndq8RRecKSu8vYjpNZ6Gabzm6dCJisiAnAC3E2YYgC8
2scobncGpkixygkHQIrIX0JgyzX+ufzyZnL8rFfX7Vf6GKeYSseH59LQSv/z1xy9
hQvyHM/iTreebQOfRnZrze33gPPNrOmKINR9wWqFNXi6h1/nmHxV5zZBOqePJtl2
5PdSE4Bbc9ZL1PWVo3gReZCmGXmb1y0DrnMDMqCCaWOn1jZtWPFN2dBZAgMBAAGj
bjBsMCAGA1UdEQQZMBeCFWFtc3RlcmRhbS5uc2EtZml4LmNvbTAJBgNVHRMEAjAA
MBEGCWCGSAGG+EIBAQQEAwIGwDAdBgNVHSUEFjAUBggrBgEFBQcDAgYIKwYBBQUH
AwEwCwYDVR0PBAQDAgXgMA0GCSqGSIb3DQEBBQUAA4ICAQCvsTJOve4Lqj2NNbz5
wsWd1815ihyqvr0SC3/NYhiG7kazdVI559VHjcU3AmJjyBFKPAOAsZm/HdcQq4s/
bxI238sVDSBpCa4nRihCKwVCSn7OF35DtIWzh3zqMaSwcV2WkjxEviY+mbWD4eXH
LWpZl3f3ESqle2LdDcKyWQLzBJjrZnQYupNAuPsoxrKtPgO+b9ow5/I0Rp9TqqY5
09M47Kz/tCfJGI8PeWz7AuAVry6fF7VdgkCCDTey8IThioOmtljaA8wSWOvPb2/a
r+TDqIFEIP0UFUJka5PYpnbdJF+bEB5tYn03gCt54JHvDX/DpQ2o1CuNF4BJof/o
Zi7Ajl/YqS78bI84cw7Z7w3p9SZ/5e1HDg3jTKx4VKI+m8Cu/AulOzOVI0HZUTim
AasbZNRXsTso/PnEF5hqhn5TnFWiMEbYXC+h6Nnbo2l6l6IbJ9H4uYPZD+tjxi8/
sL01c3smkPIp0AY9PSeHiuuOo9JVdEP76mDM0pCEKmzIIdWJb5Flsc8vn8wfbbfL
4a+LSqHVAjBVjmsfTjTMZINXp6jN9F4BIQSfiw87iY6T0eLUeTv2j/tBnQAem7aU
0AU0syv+r+2m9EhzsW4MiGX7BF6M3X3Fn3n+7QDORyjtOnQRpMIIaRfUo6FLUf9O
q/7TuDU+A4jzzJYcJKqpIKfi/A==
-----END CERTIFICATE-----
