Certificate:
    Data:
        Version: 3 (0x2)
        Serial Number: 4 (0x4)
    Signature Algorithm: sha1WithRSAEncryption
        Issuer: CN=NSA-FIX CA, ST=foo, C=NL/emailAddress=info@nsa-fix.com, O=Thirdman, OU=Research & Development
        Validity
            Not Before: Apr  9 12:17:30 2014 GMT
            Not After : Apr  8 12:17:30 2019 GMT
        Subject: CN=alpha-4, ST=foo6, C=fi/emailAddress=root@tradeshowhell.com, O=My Organization Name, OU=Subunit of My Large Organization
        Subject Public Key Info:
            Public Key Algorithm: rsaEncryption
                Public-Key: (4096 bit)
                Modulus:
                    00:ec:91:33:49:3c:50:e4:e9:87:12:c4:e3:d1:90:
                    31:d9:32:99:83:b0:00:d2:48:be:c4:cc:a9:1e:4c:
                    fe:33:72:4e:a8:4f:f5:df:2b:60:cf:0a:33:c9:94:
                    71:39:3f:6e:f8:bd:d9:fc:47:1a:b0:c0:38:f1:ed:
                    ab:a4:1a:d7:84:0a:9b:ee:fe:6e:06:17:f1:ac:8f:
                    bd:ad:0b:2f:9d:b4:28:29:26:7f:4c:d2:aa:4e:53:
                    f4:66:51:e2:d8:19:77:d5:90:57:81:f2:d6:b1:1d:
                    33:5a:ba:98:ad:d5:51:e7:be:bd:9c:f8:95:1d:21:
                    98:df:c7:1e:24:70:80:0c:34:80:00:71:db:c2:6d:
                    24:56:dc:cb:c5:bb:04:c6:31:9f:35:7c:0d:d5:ff:
                    6d:fd:26:7f:95:2a:76:9a:c0:0e:2b:b8:ea:b2:f7:
                    b2:b7:4a:72:91:9d:ec:e2:cd:a6:26:a8:a8:22:96:
                    7e:30:fb:be:85:0e:a7:6a:b4:fa:3c:a2:7c:cb:92:
                    67:b1:df:e5:eb:88:c6:98:e3:6d:6e:ab:5f:cf:f9:
                    e5:63:54:09:b6:cf:ac:c4:90:d5:2d:fd:f2:a7:36:
                    b0:4b:60:5e:ac:a2:14:f8:c9:13:a3:e1:3c:e3:3e:
                    52:8d:4e:0f:fe:c0:4d:6a:3b:ec:2a:e4:db:78:80:
                    7f:f9:6d:0c:57:c8:40:53:2e:6b:e2:a7:16:8a:d4:
                    86:48:2b:54:5d:0e:09:69:03:1f:f3:a2:12:b5:3a:
                    2c:29:eb:65:d5:33:b7:22:0c:1d:22:cb:ae:5e:12:
                    19:d2:df:36:cb:6f:0e:ad:f8:f0:d6:5d:06:27:8f:
                    18:e8:ee:f3:d0:e7:10:61:30:a9:98:63:78:6f:92:
                    a0:98:7e:0a:1b:9c:94:62:47:f1:af:2a:41:23:68:
                    4c:31:32:6c:7b:c5:e5:fd:49:be:dc:91:14:f2:88:
                    20:f2:04:09:91:0d:93:ee:df:9f:20:5f:33:bb:8c:
                    11:43:35:4a:f9:38:de:11:80:a3:41:5e:24:1b:c3:
                    b6:12:4c:0d:f2:fc:4c:29:3a:7b:c4:1f:cd:75:34:
                    de:3e:65:cd:18:2d:4c:a1:81:1f:85:2c:34:3a:74:
                    09:8a:3c:05:e6:2e:40:a8:d4:18:56:69:f3:01:19:
                    9b:08:60:78:3f:b9:b8:9d:b5:5c:b9:12:d5:08:cd:
                    97:c3:c1:7a:ac:f1:c2:42:37:c8:b8:a2:1d:9f:5f:
                    45:7f:ed:5d:89:2f:92:24:e3:6c:de:e8:90:b6:e4:
                    f0:3b:69:47:52:3a:57:be:e5:1b:0c:2f:4f:b2:cb:
                    85:e2:3b:d8:8c:0b:70:51:9b:fb:31:a8:7b:7a:a5:
                    0f:22:e9
                Exponent: 65537 (0x10001)
        X509v3 extensions:
            X509v3 Subject Alternative Name: 
                DNS:amsterdam.nsa-fix.com
            X509v3 Basic Constraints: 
                CA:FALSE
            Netscape Cert Type: 
                SSL Client, SSL Server
            X509v3 Extended Key Usage: 
                TLS Web Client Authentication, TLS Web Server Authentication
            X509v3 Key Usage: 
                Digital Signature, Non Repudiation, Key Encipherment
    Signature Algorithm: sha1WithRSAEncryption
         42:ce:e8:db:48:c7:10:26:5b:b3:69:83:76:8c:89:6e:e3:16:
         19:7a:f6:3e:d2:30:0d:74:f9:09:8a:ba:ef:18:93:69:88:2b:
         b0:5f:a7:e6:32:0d:0a:37:c7:54:49:bf:9c:2c:39:86:d3:22:
         10:75:b6:27:8c:10:4c:74:75:00:37:b4:5c:49:76:0c:6d:24:
         5e:3d:92:25:4f:47:4f:b9:a6:72:5a:3a:32:ba:9a:84:a3:9d:
         f7:a9:3d:03:02:1b:28:e4:7b:9b:e4:a3:0c:6c:7a:a7:f8:92:
         ca:c1:16:c0:35:05:6c:3a:ae:fb:d0:1c:63:2d:55:b9:30:b2:
         14:91:6f:ce:00:91:46:05:35:09:e8:8f:ad:69:d1:e6:86:ea:
         63:55:00:76:cb:2c:4f:de:e6:9f:ef:26:d9:d8:53:7f:99:5c:
         e0:a8:0c:cb:1c:42:b5:b7:7e:56:3f:31:8e:86:1f:d4:03:23:
         d5:5a:3b:dc:b8:f0:3b:66:a6:6d:11:f5:ad:94:d2:99:08:86:
         a4:dd:96:a3:90:e9:38:bd:77:84:9d:3c:4b:56:27:d6:28:a4:
         3b:3f:0a:68:36:87:46:9c:f4:ca:d3:97:e8:a1:26:6a:9c:f3:
         3b:6d:02:c9:98:6a:26:ba:e3:d9:a1:7b:3c:53:6f:1a:36:c8:
         fc:31:5b:a9:86:c4:f5:62:b1:73:8d:1e:46:f4:b8:f0:ee:5e:
         ab:d4:5c:e3:f3:c4:01:7b:60:1b:4c:34:f2:b6:05:19:97:ef:
         45:9c:20:f7:77:82:0f:18:59:cf:4b:bd:ac:4f:c8:a0:3e:17:
         97:b6:01:3f:26:81:b9:d4:25:f0:c4:fa:58:b1:d4:df:72:1d:
         76:17:0b:8c:84:3d:66:1b:6a:0a:db:76:12:48:24:9c:db:24:
         c7:fd:d0:24:7c:ad:4e:ec:1c:fe:20:97:87:11:bd:6f:75:b1:
         e6:61:f6:9b:98:2d:0b:22:de:a9:1a:d5:c7:99:28:2f:ac:56:
         54:a3:25:58:c7:08:c6:0f:78:5b:62:9a:7a:08:79:b2:31:30:
         a2:d2:4d:6b:7f:9f:29:b9:0f:77:f3:5f:d0:cd:1d:bf:ec:2a:
         9e:42:3c:b6:79:ce:7e:9f:c9:70:84:34:ae:75:7c:6e:06:f6:
         46:d5:33:45:9a:6a:e0:71:b3:ab:a5:3f:a3:c4:78:2a:fc:d9:
         54:10:f8:53:f5:d9:96:ec:9f:c6:6b:bc:cd:0c:81:10:c3:eb:
         14:fa:6b:fd:58:8d:5d:63:d8:bb:90:2a:2e:9f:f4:ca:cd:fc:
         1a:e4:9b:ca:4e:42:50:f8:35:66:2f:27:ee:0c:02:d5:2e:74:
         98:03:95:93:2a:e4:c2:32
-----BEGIN CERTIFICATE-----
MIIGDzCCA/egAwIBAgIBBDANBgkqhkiG9w0BAQUFADCBhTETMBEGA1UEAxMKTlNB
LUZJWCBDQTEMMAoGA1UECBMDZm9vMQswCQYDVQQGEwJOTDEfMB0GCSqGSIb3DQEJ
ARYQaW5mb0Buc2EtZml4LmNvbTERMA8GA1UEChMIVGhpcmRtYW4xHzAdBgNVBAsU
FlJlc2VhcmNoICYgRGV2ZWxvcG1lbnQwHhcNMTQwNDA5MTIxNzMwWhcNMTkwNDA4
MTIxNzMwWjCBnzEQMA4GA1UEAxMHYWxwaGEtNDENMAsGA1UECBMEZm9vNjELMAkG
A1UEBhMCZmkxJTAjBgkqhkiG9w0BCQEWFnJvb3RAdHJhZGVzaG93aGVsbC5jb20x
HTAbBgNVBAoTFE15IE9yZ2FuaXphdGlvbiBOYW1lMSkwJwYDVQQLEyBTdWJ1bml0
IG9mIE15IExhcmdlIE9yZ2FuaXphdGlvbjCCAiIwDQYJKoZIhvcNAQEBBQADggIP
ADCCAgoCggIBAOyRM0k8UOTphxLE49GQMdkymYOwANJIvsTMqR5M/jNyTqhP9d8r
YM8KM8mUcTk/bvi92fxHGrDAOPHtq6Qa14QKm+7+bgYX8ayPva0LL520KCkmf0zS
qk5T9GZR4tgZd9WQV4Hy1rEdM1q6mK3VUee+vZz4lR0hmN/HHiRwgAw0gABx28Jt
JFbcy8W7BMYxnzV8DdX/bf0mf5UqdprADiu46rL3srdKcpGd7OLNpiaoqCKWfjD7
voUOp2q0+jyifMuSZ7Hf5euIxpjjbW6rX8/55WNUCbbPrMSQ1S398qc2sEtgXqyi
FPjJE6PhPOM+Uo1OD/7ATWo77Crk23iAf/ltDFfIQFMua+KnForUhkgrVF0OCWkD
H/OiErU6LCnrZdUztyIMHSLLrl4SGdLfNstvDq348NZdBiePGOju89DnEGEwqZhj
eG+SoJh+ChuclGJH8a8qQSNoTDEybHvF5f1JvtyRFPKIIPIECZENk+7fnyBfM7uM
EUM1Svk43hGAo0FeJBvDthJMDfL8TCk6e8QfzXU03j5lzRgtTKGBH4UsNDp0CYo8
BeYuQKjUGFZp8wEZmwhgeD+5uJ21XLkS1QjNl8PBeqzxwkI3yLiiHZ9fRX/tXYkv
kiTjbN7okLbk8DtpR1I6V77lGwwvT7LLheI72IwLcFGb+zGoe3qlDyLpAgMBAAGj
bjBsMCAGA1UdEQQZMBeCFWFtc3RlcmRhbS5uc2EtZml4LmNvbTAJBgNVHRMEAjAA
MBEGCWCGSAGG+EIBAQQEAwIGwDAdBgNVHSUEFjAUBggrBgEFBQcDAgYIKwYBBQUH
AwEwCwYDVR0PBAQDAgXgMA0GCSqGSIb3DQEBBQUAA4ICAQBCzujbSMcQJluzaYN2
jIlu4xYZevY+0jANdPkJirrvGJNpiCuwX6fmMg0KN8dUSb+cLDmG0yIQdbYnjBBM
dHUAN7RcSXYMbSRePZIlT0dPuaZyWjoyupqEo533qT0DAhso5Hub5KMMbHqn+JLK
wRbANQVsOq770BxjLVW5MLIUkW/OAJFGBTUJ6I+tadHmhupjVQB2yyxP3uaf7ybZ
2FN/mVzgqAzLHEK1t35WPzGOhh/UAyPVWjvcuPA7ZqZtEfWtlNKZCIak3ZajkOk4
vXeEnTxLVifWKKQ7PwpoNodGnPTK05fooSZqnPM7bQLJmGomuuPZoXs8U28aNsj8
MVuphsT1YrFzjR5G9Ljw7l6r1Fzj88QBe2AbTDTytgUZl+9FnCD3d4IPGFnPS72s
T8igPheXtgE/JoG51CXwxPpYsdTfch12FwuMhD1mG2oK23YSSCSc2yTH/dAkfK1O
7Bz+IJeHEb1vdbHmYfabmC0LIt6pGtXHmSgvrFZUoyVYxwjGD3hbYpp6CHmyMTCi
0k1rf58puQ9381/QzR2/7CqeQjy2ec5+n8lwhDSudXxuBvZG1TNFmmrgcbOrpT+j
xHgq/NlUEPhT9dmW7J/Ga7zNDIEQw+sU+mv9WI1dY9i7kCoun/TKzfwa5JvKTkJQ
+DVmLyfuDALVLnSYA5WTKuTCMg==
-----END CERTIFICATE-----
