Certificate:
    Data:
        Version: 3 (0x2)
        Serial Number: 1 (0x1)
    Signature Algorithm: sha1WithRSAEncryption
        Issuer: CN=NSA-FIX CA, ST=foo, C=NL/emailAddress=info@nsa-fix.com, O=Thirdman, OU=Research & Development
        Validity
            Not Before: Apr  9 12:12:24 2014 GMT
            Not After : Apr  8 12:12:24 2019 GMT
        Subject: CN=alpha-1, ST=foo6, C=fi/emailAddress=root@tradeshowhell.com, O=My Organization Name, OU=Subunit of My Large Organization
        Subject Public Key Info:
            Public Key Algorithm: rsaEncryption
                Public-Key: (4096 bit)
                Modulus:
                    00:a9:76:a6:f0:19:f2:87:50:ca:06:b5:06:03:a6:
                    c6:dc:e9:c8:4b:aa:ce:4a:6c:22:f6:ea:0e:d0:35:
                    cb:c1:ce:02:9b:f3:6f:5a:59:d7:7f:f5:34:a8:8d:
                    01:9e:90:5b:8f:30:6e:c8:29:42:90:57:7f:76:1c:
                    a0:07:e1:be:73:9b:b9:48:c5:c3:1a:b0:72:f6:2d:
                    e9:15:c6:e6:1c:4c:89:56:31:f0:3a:e9:7a:60:92:
                    58:f9:70:4f:94:22:fe:a9:7a:21:5d:a8:0f:94:7d:
                    66:df:50:f4:39:e6:92:0e:a7:96:11:28:68:4b:29:
                    84:64:c5:36:b8:37:29:a9:6c:33:8e:6c:21:59:6d:
                    bb:4b:5c:2d:a8:dc:15:0c:03:24:ae:da:11:0e:65:
                    0b:d4:04:94:04:98:5e:06:35:cd:77:de:34:1a:17:
                    8c:24:8a:9a:68:3c:ca:a4:e6:82:6f:f6:4b:5e:44:
                    88:a3:c1:bc:55:99:b4:50:8c:c2:f5:e2:5f:0b:2e:
                    62:42:12:1f:36:ca:e6:19:4f:3b:dc:36:b9:41:5e:
                    b6:b6:c0:ec:56:94:fd:d7:09:14:ec:2c:8b:d5:ab:
                    1d:3b:2e:d1:28:40:16:0f:07:4e:f3:7c:b4:8c:f8:
                    2d:ed:e9:00:03:37:ab:4c:01:69:c1:0c:48:ad:7a:
                    0e:8a:e8:e4:b2:9c:9f:73:b5:ea:93:83:34:e3:c7:
                    8d:55:7a:84:49:35:16:e0:3a:5c:aa:b9:cb:bf:ab:
                    c8:0f:09:9b:55:f5:2e:49:99:ab:55:ad:89:09:5d:
                    5a:1f:83:4c:de:1d:d6:a5:5d:df:6e:9c:67:42:9f:
                    8a:ab:2e:23:c6:04:72:6e:71:e4:5b:cc:5c:8f:2a:
                    0a:f9:8f:31:01:dc:63:62:a7:7e:9e:df:cc:c4:92:
                    ce:97:01:93:9f:3a:b9:69:11:15:19:2b:4a:13:d4:
                    f5:03:de:e4:2d:4e:6b:bd:67:87:0a:6f:d1:bf:b9:
                    1d:e0:b8:7d:11:60:1c:4c:df:74:c4:3f:5e:bf:e9:
                    b3:c6:46:20:da:1d:40:db:28:e8:26:fd:18:a4:cf:
                    a0:76:ea:ba:c0:ef:41:ac:4f:7b:c0:52:6e:c0:00:
                    59:64:a1:ba:fc:c1:f3:e6:aa:b5:fc:6a:7a:02:f0:
                    7d:a3:e5:81:c8:9b:f3:72:fe:3b:7b:89:97:09:e4:
                    69:76:c7:e8:18:ef:55:43:98:fe:01:df:7d:dd:ce:
                    21:b0:cb:7b:a9:f7:97:aa:33:9a:ca:b8:0a:4d:a3:
                    69:86:66:16:15:5d:6d:45:36:be:6b:24:ec:3d:4f:
                    8f:08:42:d1:04:74:ee:8d:2e:ed:df:3d:3b:a1:86:
                    23:43:41
                Exponent: 65537 (0x10001)
        X509v3 extensions:
            X509v3 Subject Alternative Name: 
                DNS:amsterdam.nsa-fix.com
            X509v3 Basic Constraints: 
                CA:FALSE
            Netscape Cert Type: 
                SSL Client, SSL Server
            X509v3 Extended Key Usage: 
                TLS Web Client Authentication, TLS Web Server Authentication
            X509v3 Key Usage: 
                Digital Signature, Non Repudiation, Key Encipherment
    Signature Algorithm: sha1WithRSAEncryption
         45:f8:02:52:b2:f8:63:80:36:bf:0e:30:39:3c:82:18:ee:50:
         48:fd:73:c8:32:f7:f0:d7:92:57:e0:2c:38:c6:d8:22:88:cd:
         6b:d9:c4:9a:24:4e:7b:d9:75:6d:82:d1:d7:7f:41:1d:42:62:
         de:43:91:a9:81:dc:90:24:21:67:e2:4d:f4:eb:77:13:ec:64:
         58:23:ee:c5:90:28:49:8f:90:f7:e1:a8:37:30:d2:b1:bc:c8:
         5b:5a:45:92:b4:5b:f1:ad:29:41:75:cd:bb:aa:86:fe:f7:61:
         dc:25:5b:a2:a0:18:f3:c5:b2:88:fd:af:68:d4:fb:9b:d7:97:
         08:93:8e:46:c4:01:a0:5c:fd:a8:18:f0:4b:8b:5c:ab:37:4e:
         cc:b0:99:81:96:7c:1e:68:59:81:c2:30:a8:09:47:c7:f4:3a:
         b8:81:f9:62:00:07:2e:2b:d3:22:74:c6:c3:25:8f:68:aa:71:
         67:21:16:ad:6d:aa:de:64:14:d1:1f:a7:5c:88:2f:84:ce:0a:
         c5:7e:a2:38:f2:52:32:76:69:72:7e:5d:53:e1:c9:21:17:54:
         10:17:1d:85:24:3e:2f:a6:89:ec:d5:5d:67:2a:4c:6a:41:ec:
         6d:42:66:24:f2:75:47:0f:ce:4b:66:21:65:82:2a:ce:ac:8e:
         21:a9:6d:56:db:c6:5f:18:b6:63:8c:e6:65:8e:a6:77:61:18:
         f6:d2:f8:ac:ab:e2:9e:dd:3b:bf:00:10:57:7b:c4:c2:91:cf:
         79:b5:c1:95:9b:e3:da:a4:04:e2:c2:19:f2:17:d6:5c:57:0b:
         6c:d5:f2:c8:f4:3c:36:ef:66:53:c0:8e:54:ed:ee:b0:ed:e0:
         f4:f5:f5:29:ac:a1:61:c1:5a:d2:8a:48:f5:02:68:7c:f6:fb:
         88:bd:f0:bd:f9:23:2b:86:fe:8e:e2:da:c9:9f:6f:2f:08:d1:
         24:57:8e:7a:e1:27:3d:4f:3e:8f:93:13:38:cd:f1:ba:29:5c:
         06:6a:b3:70:1b:73:4d:a9:0c:64:1a:c2:12:f5:0b:68:a3:ae:
         48:eb:07:c0:44:64:b8:2d:3d:a2:0b:30:82:6c:31:59:09:81:
         0e:ae:b0:d7:db:37:81:d4:a2:8f:ec:b4:3f:57:04:36:07:e3:
         92:83:bd:90:be:1e:c4:bd:b0:99:24:d2:c7:c9:f1:b9:6d:8b:
         52:26:4d:dd:cf:f9:22:9c:78:1a:89:cd:9f:10:ac:12:a1:30:
         46:16:5d:0c:eb:56:e8:56:99:a3:f6:82:ac:c9:0b:8a:31:76:
         a1:da:f0:3a:f8:fa:2a:8b:78:34:27:c6:d4:5f:ae:29:c2:a3:
         a4:37:92:b1:c7:37:55:e5
-----BEGIN CERTIFICATE-----
MIIGDzCCA/egAwIBAgIBATANBgkqhkiG9w0BAQUFADCBhTETMBEGA1UEAxMKTlNB
LUZJWCBDQTEMMAoGA1UECBMDZm9vMQswCQYDVQQGEwJOTDEfMB0GCSqGSIb3DQEJ
ARYQaW5mb0Buc2EtZml4LmNvbTERMA8GA1UEChMIVGhpcmRtYW4xHzAdBgNVBAsU
FlJlc2VhcmNoICYgRGV2ZWxvcG1lbnQwHhcNMTQwNDA5MTIxMjI0WhcNMTkwNDA4
MTIxMjI0WjCBnzEQMA4GA1UEAxMHYWxwaGEtMTENMAsGA1UECBMEZm9vNjELMAkG
A1UEBhMCZmkxJTAjBgkqhkiG9w0BCQEWFnJvb3RAdHJhZGVzaG93aGVsbC5jb20x
HTAbBgNVBAoTFE15IE9yZ2FuaXphdGlvbiBOYW1lMSkwJwYDVQQLEyBTdWJ1bml0
IG9mIE15IExhcmdlIE9yZ2FuaXphdGlvbjCCAiIwDQYJKoZIhvcNAQEBBQADggIP
ADCCAgoCggIBAKl2pvAZ8odQyga1BgOmxtzpyEuqzkpsIvbqDtA1y8HOApvzb1pZ
13/1NKiNAZ6QW48wbsgpQpBXf3YcoAfhvnObuUjFwxqwcvYt6RXG5hxMiVYx8Drp
emCSWPlwT5Qi/ql6IV2oD5R9Zt9Q9Dnmkg6nlhEoaEsphGTFNrg3KalsM45sIVlt
u0tcLajcFQwDJK7aEQ5lC9QElASYXgY1zXfeNBoXjCSKmmg8yqTmgm/2S15EiKPB
vFWZtFCMwvXiXwsuYkISHzbK5hlPO9w2uUFetrbA7FaU/dcJFOwsi9WrHTsu0ShA
Fg8HTvN8tIz4Le3pAAM3q0wBacEMSK16Doro5LKcn3O16pODNOPHjVV6hEk1FuA6
XKq5y7+ryA8Jm1X1LkmZq1WtiQldWh+DTN4d1qVd326cZ0KfiqsuI8YEcm5x5FvM
XI8qCvmPMQHcY2Knfp7fzMSSzpcBk586uWkRFRkrShPU9QPe5C1Oa71nhwpv0b+5
HeC4fRFgHEzfdMQ/Xr/ps8ZGINodQNso6Cb9GKTPoHbqusDvQaxPe8BSbsAAWWSh
uvzB8+aqtfxqegLwfaPlgcib83L+O3uJlwnkaXbH6BjvVUOY/gHffd3OIbDLe6n3
l6ozmsq4Ck2jaYZmFhVdbUU2vmsk7D1PjwhC0QR07o0u7d89O6GGI0NBAgMBAAGj
bjBsMCAGA1UdEQQZMBeCFWFtc3RlcmRhbS5uc2EtZml4LmNvbTAJBgNVHRMEAjAA
MBEGCWCGSAGG+EIBAQQEAwIGwDAdBgNVHSUEFjAUBggrBgEFBQcDAgYIKwYBBQUH
AwEwCwYDVR0PBAQDAgXgMA0GCSqGSIb3DQEBBQUAA4ICAQBF+AJSsvhjgDa/DjA5
PIIY7lBI/XPIMvfw15JX4Cw4xtgiiM1r2cSaJE572XVtgtHXf0EdQmLeQ5GpgdyQ
JCFn4k3063cT7GRYI+7FkChJj5D34ag3MNKxvMhbWkWStFvxrSlBdc27qob+92Hc
JVuioBjzxbKI/a9o1Pub15cIk45GxAGgXP2oGPBLi1yrN07MsJmBlnweaFmBwjCo
CUfH9Dq4gfliAAcuK9MidMbDJY9oqnFnIRatbareZBTRH6dciC+EzgrFfqI48lIy
dmlyfl1T4ckhF1QQFx2FJD4vpons1V1nKkxqQextQmYk8nVHD85LZiFlgirOrI4h
qW1W28ZfGLZjjOZljqZ3YRj20visq+Ke3Tu/ABBXe8TCkc95tcGVm+PapATiwhny
F9ZcVwts1fLI9Dw272ZTwI5U7e6w7eD09fUprKFhwVrSikj1Amh89vuIvfC9+SMr
hv6O4trJn28vCNEkV4564Sc9Tz6PkxM4zfG6KVwGarNwG3NNqQxkGsIS9Qtoo65I
6wfARGS4LT2iCzCCbDFZCYEOrrDX2zeB1KKP7LQ/VwQ2B+OSg72Qvh7EvbCZJNLH
yfG5bYtSJk3dz/kinHgaic2fEKwSoTBGFl0M61boVpmj9oKsyQuKMXah2vA6+Poq
i3g0J8bUX64pwqOkN5KxxzdV5Q==
-----END CERTIFICATE-----
