Certificate:
    Data:
        Version: 3 (0x2)
        Serial Number: 2 (0x2)
    Signature Algorithm: sha1WithRSAEncryption
        Issuer: CN=NSA-FIX CA, ST=foo, C=NL/emailAddress=info@nsa-fix.com, O=Thirdman, OU=Research & Development
        Validity
            Not Before: Apr  9 12:15:10 2014 GMT
            Not After : Apr  8 12:15:10 2019 GMT
        Subject: CN=alpha-2, ST=foo6, C=fi/emailAddress=root@tradeshowhell.com, O=My Organization Name, OU=Subunit of My Large Organization
        Subject Public Key Info:
            Public Key Algorithm: rsaEncryption
                Public-Key: (4096 bit)
                Modulus:
                    00:a4:9f:71:f0:b1:f3:27:9b:c9:32:61:f8:e6:5c:
                    15:4c:e4:df:58:6d:3f:c8:7e:2e:d1:3a:bc:5a:07:
                    f5:6e:d4:a9:37:09:3f:3a:02:bc:ea:f1:77:32:00:
                    10:e3:7f:a5:71:11:b0:d5:d4:80:eb:e4:18:2a:77:
                    94:9b:36:e7:93:9d:ea:6d:c1:b6:1a:83:49:35:3b:
                    29:6d:07:d7:9b:c2:6e:f4:fc:cf:18:5e:d3:71:04:
                    f0:27:b3:86:99:da:09:cc:ce:6c:ba:2e:4d:86:2c:
                    a8:bc:93:2f:d6:8e:4d:b7:f2:10:c1:a9:9e:4f:0b:
                    17:3f:99:e9:12:58:a5:8d:ca:3a:29:8a:2d:0e:59:
                    7a:2a:0d:ae:4c:aa:4a:ca:ec:91:b4:85:c3:73:e6:
                    90:52:5b:b1:ca:b1:a1:6c:cf:1e:c8:32:fa:04:a1:
                    56:8a:d1:8d:43:4e:7e:bc:87:8d:18:d4:d9:b0:f8:
                    2f:d3:65:13:0b:20:ac:de:d1:d3:aa:3a:f2:f3:7e:
                    7c:a1:b7:d9:c9:2c:bf:fd:e7:c3:b5:a5:67:b3:d4:
                    b7:37:91:d6:5c:a8:2a:5a:1f:db:f9:94:15:46:76:
                    24:bb:0b:f5:67:2b:e1:b6:0f:e4:9b:d8:15:de:f7:
                    c4:18:43:f1:1e:58:5b:01:f6:72:c6:e2:30:5d:80:
                    7d:b4:b0:0d:9a:63:fb:db:c2:7a:0d:9c:fd:17:22:
                    21:f0:e4:4d:b9:32:2a:d6:06:04:2b:53:4a:31:72:
                    4f:b4:c9:2e:e0:36:49:6d:dd:45:a4:02:5d:d2:6d:
                    7c:4d:d7:08:97:93:3c:52:e9:a2:8e:44:d2:9d:ff:
                    91:9a:cc:ad:6d:1d:3d:d1:6f:ae:f3:78:5a:0b:f5:
                    2e:85:a7:89:75:c7:40:10:fe:1c:ea:2a:1e:32:45:
                    c6:a4:ab:d5:c5:ed:00:c4:c0:da:21:17:a4:cc:3e:
                    92:1a:b2:8a:b0:5f:0b:0b:3c:9d:86:d5:01:d5:b0:
                    38:7a:1e:d4:59:d9:79:35:d0:24:ef:15:cf:3b:fc:
                    d4:e0:e2:6c:02:40:ea:68:37:50:10:48:ef:28:73:
                    95:a8:77:90:7b:85:6c:0b:1d:21:78:c7:42:92:0e:
                    d1:1e:b8:c3:d2:58:75:5c:80:9d:5a:ac:71:e8:06:
                    58:52:c4:6d:ef:2b:be:9d:b1:00:ef:0a:36:0f:7d:
                    06:e3:98:84:bd:72:d9:0b:e1:fa:c7:82:cd:0c:81:
                    80:14:8c:3a:cf:03:bc:19:18:89:70:05:e3:c0:08:
                    44:fa:4f:c0:81:42:7a:cc:85:eb:45:82:e7:68:a6:
                    b4:0c:87:a6:73:1b:eb:68:d2:be:8a:0b:5e:b1:0d:
                    b5:54:f9
                Exponent: 65537 (0x10001)
        X509v3 extensions:
            X509v3 Subject Alternative Name: 
                DNS:amsterdam.nsa-fix.com
            X509v3 Basic Constraints: 
                CA:FALSE
            Netscape Cert Type: 
                SSL Client, SSL Server
            X509v3 Extended Key Usage: 
                TLS Web Client Authentication, TLS Web Server Authentication
            X509v3 Key Usage: 
                Digital Signature, Non Repudiation, Key Encipherment
    Signature Algorithm: sha1WithRSAEncryption
         43:43:20:ce:da:5f:4b:39:64:76:9f:e7:86:43:be:ea:b7:b0:
         a1:a8:12:8f:a9:b9:34:76:1f:ac:cc:b9:11:72:5c:7d:fd:14:
         d1:1d:47:87:90:04:39:48:0f:96:5b:3f:b2:da:51:0b:12:85:
         a5:d3:d5:72:77:01:3e:a6:9a:a1:fe:72:b1:c3:b1:47:de:b3:
         79:38:d7:2c:4c:e6:d2:4c:3a:03:55:59:c0:17:e1:b9:4e:39:
         02:4b:39:22:9a:0e:14:d7:93:da:ed:e1:53:68:f2:2f:d8:23:
         00:90:28:a1:35:3c:8a:3d:1d:2a:f7:cc:76:f0:7b:6f:79:3e:
         c7:dd:03:a8:ea:87:23:d2:89:4d:63:67:b3:c3:86:bd:3e:1c:
         22:af:d7:4c:86:05:ca:44:7c:b3:45:45:78:99:53:7e:7b:db:
         87:75:3f:ce:9f:ed:3d:44:b0:2e:49:67:71:fc:3d:d5:77:e4:
         dd:34:89:08:0c:ac:cb:97:03:ff:74:4c:70:bb:09:15:a3:31:
         46:c0:4a:71:ed:3b:78:63:69:33:84:e2:d4:69:44:01:be:c0:
         b3:44:c7:ff:b8:f3:bf:9d:62:22:98:23:2a:95:2e:11:ae:c2:
         b4:76:89:a5:05:10:ab:11:b4:90:c3:13:1e:75:fe:e8:f0:11:
         b9:f8:78:17:51:16:23:67:9e:31:e5:d5:10:14:c3:0a:2d:03:
         58:fb:09:2d:0c:21:7c:02:2a:cf:eb:16:17:33:a3:17:ae:31:
         a8:76:5e:5a:23:5c:54:de:4a:38:37:e2:c8:a2:2d:d4:6f:fa:
         19:a7:75:13:50:75:c8:b9:d4:07:a3:22:b9:f6:67:0a:37:a2:
         4c:62:b5:a5:29:b5:e5:4d:2e:e7:6c:1e:19:69:27:24:a0:2c:
         29:8d:e5:b1:a3:91:6b:6c:2e:92:48:7a:c1:f5:ae:e9:bf:c9:
         b2:cc:c2:66:e9:e7:5e:40:9c:09:c2:0c:4b:96:19:0c:a9:a1:
         9a:e1:0d:53:3a:6b:25:d8:61:05:bd:eb:d6:88:6c:a6:54:1f:
         5e:ea:40:d8:61:d3:c6:11:d6:3c:e4:f4:eb:56:fa:3d:4c:39:
         3a:9b:eb:e9:4d:e0:30:9d:3e:d5:97:05:93:58:54:8e:ad:6e:
         39:09:df:37:45:73:fd:1c:63:f9:94:85:9d:86:09:50:74:e8:
         1e:98:91:39:eb:c0:ac:b4:10:fd:96:ce:91:92:00:ec:c1:6d:
         49:c7:4b:ad:f0:92:e2:5e:5f:84:c2:15:28:2b:60:1c:15:24:
         a3:30:ac:83:1b:65:50:00:af:a7:0b:e7:b5:d0:7c:60:7d:80:
         65:0a:78:0f:e4:15:71:7d
-----BEGIN CERTIFICATE-----
MIIGDzCCA/egAwIBAgIBAjANBgkqhkiG9w0BAQUFADCBhTETMBEGA1UEAxMKTlNB
LUZJWCBDQTEMMAoGA1UECBMDZm9vMQswCQYDVQQGEwJOTDEfMB0GCSqGSIb3DQEJ
ARYQaW5mb0Buc2EtZml4LmNvbTERMA8GA1UEChMIVGhpcmRtYW4xHzAdBgNVBAsU
FlJlc2VhcmNoICYgRGV2ZWxvcG1lbnQwHhcNMTQwNDA5MTIxNTEwWhcNMTkwNDA4
MTIxNTEwWjCBnzEQMA4GA1UEAxMHYWxwaGEtMjENMAsGA1UECBMEZm9vNjELMAkG
A1UEBhMCZmkxJTAjBgkqhkiG9w0BCQEWFnJvb3RAdHJhZGVzaG93aGVsbC5jb20x
HTAbBgNVBAoTFE15IE9yZ2FuaXphdGlvbiBOYW1lMSkwJwYDVQQLEyBTdWJ1bml0
IG9mIE15IExhcmdlIE9yZ2FuaXphdGlvbjCCAiIwDQYJKoZIhvcNAQEBBQADggIP
ADCCAgoCggIBAKSfcfCx8yebyTJh+OZcFUzk31htP8h+LtE6vFoH9W7UqTcJPzoC
vOrxdzIAEON/pXERsNXUgOvkGCp3lJs255Od6m3BthqDSTU7KW0H15vCbvT8zxhe
03EE8CezhpnaCczObLouTYYsqLyTL9aOTbfyEMGpnk8LFz+Z6RJYpY3KOimKLQ5Z
eioNrkyqSsrskbSFw3PmkFJbscqxoWzPHsgy+gShVorRjUNOfryHjRjU2bD4L9Nl
EwsgrN7R06o68vN+fKG32cksv/3nw7WlZ7PUtzeR1lyoKlof2/mUFUZ2JLsL9Wcr
4bYP5JvYFd73xBhD8R5YWwH2csbiMF2AfbSwDZpj+9vCeg2c/RciIfDkTbkyKtYG
BCtTSjFyT7TJLuA2SW3dRaQCXdJtfE3XCJeTPFLpoo5E0p3/kZrMrW0dPdFvrvN4
Wgv1LoWniXXHQBD+HOoqHjJFxqSr1cXtAMTA2iEXpMw+khqyirBfCws8nYbVAdWw
OHoe1FnZeTXQJO8Vzzv81ODibAJA6mg3UBBI7yhzlah3kHuFbAsdIXjHQpIO0R64
w9JYdVyAnVqscegGWFLEbe8rvp2xAO8KNg99BuOYhL1y2Qvh+seCzQyBgBSMOs8D
vBkYiXAF48AIRPpPwIFCesyF60WC52imtAyHpnMb62jSvooLXrENtVT5AgMBAAGj
bjBsMCAGA1UdEQQZMBeCFWFtc3RlcmRhbS5uc2EtZml4LmNvbTAJBgNVHRMEAjAA
MBEGCWCGSAGG+EIBAQQEAwIGwDAdBgNVHSUEFjAUBggrBgEFBQcDAgYIKwYBBQUH
AwEwCwYDVR0PBAQDAgXgMA0GCSqGSIb3DQEBBQUAA4ICAQBDQyDO2l9LOWR2n+eG
Q77qt7ChqBKPqbk0dh+szLkRclx9/RTRHUeHkAQ5SA+WWz+y2lELEoWl09VydwE+
ppqh/nKxw7FH3rN5ONcsTObSTDoDVVnAF+G5TjkCSzkimg4U15Pa7eFTaPIv2CMA
kCihNTyKPR0q98x28HtveT7H3QOo6ocj0olNY2ezw4a9Phwir9dMhgXKRHyzRUV4
mVN+e9uHdT/On+09RLAuSWdx/D3Vd+TdNIkIDKzLlwP/dExwuwkVozFGwEpx7Tt4
Y2kzhOLUaUQBvsCzRMf/uPO/nWIimCMqlS4RrsK0domlBRCrEbSQwxMedf7o8BG5
+HgXURYjZ54x5dUQFMMKLQNY+wktDCF8AirP6xYXM6MXrjGodl5aI1xU3ko4N+LI
oi3Ub/oZp3UTUHXIudQHoyK59mcKN6JMYrWlKbXlTS7nbB4ZaSckoCwpjeWxo5Fr
bC6SSHrB9a7pv8myzMJm6edeQJwJwgxLlhkMqaGa4Q1TOmsl2GEFvevWiGymVB9e
6kDYYdPGEdY85PTrVvo9TDk6m+vpTeAwnT7VlwWTWFSOrW45Cd83RXP9HGP5lIWd
hglQdOgemJE568CstBD9ls6RkgDswW1Jx0ut8JLiXl+EwhUoK2AcFSSjMKyDG2VQ
AK+nC+e10HxgfYBlCngP5BVxfQ==
-----END CERTIFICATE-----
