Certificate:
    Data:
        Version: 3 (0x2)
        Serial Number: 6 (0x6)
    Signature Algorithm: sha1WithRSAEncryption
        Issuer: CN=NSA-FIX CA, ST=foo, C=NL/emailAddress=info@nsa-fix.com, O=Thirdman, OU=Research & Development
        Validity
            Not Before: Apr  9 12:35:10 2014 GMT
            Not After : Apr  8 12:35:10 2019 GMT
        Subject: CN=conference, ST=foo6, C=fi/emailAddress=root@tradeshowhell.com, O=My Organization Name, OU=Subunit of My Large Organization
        Subject Public Key Info:
            Public Key Algorithm: rsaEncryption
                Public-Key: (4096 bit)
                Modulus:
                    00:c1:4a:c1:ba:e5:84:54:85:40:51:9c:87:0f:16:
                    a5:f3:0a:c9:ee:8b:e4:c6:95:bf:04:c8:07:7b:b2:
                    a7:4e:ec:38:7d:db:a0:31:28:1c:b4:93:84:ef:22:
                    61:75:68:4a:57:9f:f3:ed:62:61:37:b2:47:6d:85:
                    cb:6f:67:80:de:e6:72:40:cb:d1:6e:73:d1:d8:f1:
                    a2:a6:06:e2:17:03:ef:b3:7f:3c:73:40:54:ec:18:
                    3d:c7:a7:8b:7d:5b:87:58:ba:78:97:0a:47:81:5b:
                    6c:55:7c:50:8e:3c:30:6d:fd:b1:2c:ac:62:3b:8c:
                    8a:87:26:64:84:9d:66:13:16:1e:3d:b6:22:bb:73:
                    18:a4:3d:f2:3f:3c:1d:95:b9:68:31:42:23:44:d8:
                    54:06:96:26:80:86:ae:6c:2e:dc:1c:60:af:95:d2:
                    1e:95:46:a8:89:be:81:41:3b:c7:62:23:7e:4e:ba:
                    dc:4e:31:05:57:6b:88:33:e5:eb:c9:1b:2c:5e:2c:
                    93:33:35:64:db:b4:69:f6:33:55:1e:0e:32:bb:31:
                    63:9e:d8:84:d4:48:2b:80:03:8d:2e:d9:91:18:3d:
                    e8:ab:20:ab:ad:5c:5d:ba:d5:9f:b8:46:10:75:92:
                    f5:5c:58:0e:0b:b2:ef:1e:6b:6c:c6:49:ed:15:10:
                    87:b7:0e:8d:f5:e4:cb:92:97:a0:2e:10:c4:88:37:
                    0e:b5:d9:5e:ee:bc:c5:3e:e8:d3:9c:8b:ff:99:98:
                    36:d6:bf:ae:79:1b:7a:60:54:71:69:b5:ce:41:a9:
                    5d:0c:37:38:47:49:bb:28:9d:13:8e:aa:f8:18:97:
                    e1:72:16:f6:75:1c:14:44:0d:8d:36:b1:e6:cc:a7:
                    f5:bc:64:00:95:a8:c1:b4:24:12:62:f1:75:cd:78:
                    69:cc:6c:a7:a7:1e:07:d5:fb:51:b1:ab:b6:63:99:
                    9d:40:05:fd:38:ca:6f:ca:e1:ed:22:7b:43:05:31:
                    3c:8e:6d:64:64:57:13:a9:2a:60:35:48:49:96:b4:
                    35:57:b0:b6:8a:c5:28:eb:14:eb:98:0d:6f:b3:7c:
                    f0:c6:2f:89:19:56:1b:43:c7:83:ae:58:a9:77:d5:
                    22:36:80:7c:2c:c7:d2:17:a9:1d:2b:49:14:44:ba:
                    52:37:0a:5b:b1:6c:38:67:a8:23:88:84:85:83:9b:
                    6f:17:f4:6e:2e:36:69:0f:f3:c3:ff:09:ff:60:f9:
                    31:fb:04:46:b0:fe:f3:47:01:b5:0a:ef:00:d7:35:
                    16:42:63:e8:1c:28:bf:68:bd:06:9f:0d:8c:ca:a6:
                    90:2c:1d:0c:08:de:f7:33:02:48:14:0f:70:6e:2b:
                    b0:95:27
                Exponent: 65537 (0x10001)
        X509v3 extensions:
            X509v3 Subject Alternative Name: 
                DNS:amsterdam.nsa-fix.com
            X509v3 Basic Constraints: 
                CA:FALSE
            Netscape Cert Type: 
                SSL Client, SSL Server
            X509v3 Extended Key Usage: 
                TLS Web Client Authentication, TLS Web Server Authentication
            X509v3 Key Usage: 
                Digital Signature, Non Repudiation, Key Encipherment
    Signature Algorithm: sha1WithRSAEncryption
         57:72:3e:a4:d0:76:65:9a:ee:58:55:62:1a:e0:6f:60:2f:55:
         d6:67:90:2f:81:e5:3b:3f:2d:bf:a0:32:12:08:64:6a:c7:32:
         b6:9f:97:3c:ab:25:bc:5e:b0:69:50:60:94:6c:7b:61:a2:d3:
         b5:4b:69:c1:5a:c7:54:0f:7c:dc:57:83:8e:ef:cb:17:33:7e:
         ee:ef:52:f8:40:48:bb:f5:0e:dc:7e:a9:02:75:43:c5:d8:ea:
         d5:f5:f8:1e:27:4e:a9:2b:7a:7e:2f:b3:32:3d:82:83:b1:91:
         9c:39:f3:a8:9a:ba:82:24:c2:da:d3:f8:5b:e7:9b:99:51:75:
         65:c5:1e:ff:45:76:d9:09:14:95:a6:8d:f8:ab:f9:de:08:c0:
         e7:2d:16:f3:56:a0:83:32:c2:ed:82:67:7d:0b:e7:e6:5f:42:
         dc:fb:dc:49:22:a9:21:8c:17:00:f2:20:97:37:5c:72:70:b0:
         e5:be:05:4e:27:e2:85:3c:d9:39:6e:a0:f7:79:ac:37:e4:30:
         f3:aa:f0:e7:18:b6:ba:79:13:35:e4:76:8e:93:6f:3c:6d:77:
         bc:ef:53:b4:1b:05:63:84:3f:d3:d0:3a:b6:2f:40:c8:2a:a1:
         6c:b9:0e:37:99:76:c8:2f:5e:5d:ee:58:4b:44:4a:54:53:17:
         57:48:a4:ff:5b:bc:19:5d:b4:32:27:b7:e9:90:7f:4a:0a:bd:
         40:c5:e8:bf:1f:b7:7f:11:ea:c6:5d:82:68:d8:2f:ef:6c:9f:
         80:f4:36:82:a3:a3:04:24:9e:42:37:2f:e8:2e:85:17:8a:59:
         63:b0:2d:f7:2f:cd:50:33:a9:70:6a:22:a4:6d:e1:ad:4e:71:
         07:12:99:19:23:ca:64:4f:38:b7:44:d4:a8:d0:48:d6:91:b7:
         54:17:f4:34:86:2d:ff:e9:5a:ea:2d:d8:d4:3f:17:e3:1d:73:
         9c:61:0f:84:1f:d7:48:c7:e7:c8:d6:64:4a:4c:48:8a:8d:85:
         c4:0d:af:01:ba:50:99:7e:e1:65:f5:1e:a7:6b:57:87:5a:5f:
         0e:16:b1:71:eb:ef:f4:95:a1:9a:b4:d1:a5:12:6f:d3:e0:3c:
         7a:b7:ef:33:0d:79:41:c6:86:ad:ef:f9:4e:b5:28:f7:1b:85:
         66:ee:44:1a:f9:c0:c4:56:14:81:54:22:41:2e:10:9e:05:39:
         b7:a1:49:b2:67:ab:f6:49:49:ab:a7:34:41:df:0c:5a:4a:d9:
         59:ed:4f:d4:c1:ee:f7:e6:90:79:38:be:01:e6:31:b9:9b:6b:
         7f:b3:1e:51:9f:b2:7e:48:40:c0:cd:9d:ea:d0:41:03:f4:a0:
         4b:d1:0c:a3:45:40:ee:74
-----BEGIN CERTIFICATE-----
MIIGEjCCA/qgAwIBAgIBBjANBgkqhkiG9w0BAQUFADCBhTETMBEGA1UEAxMKTlNB
LUZJWCBDQTEMMAoGA1UECBMDZm9vMQswCQYDVQQGEwJOTDEfMB0GCSqGSIb3DQEJ
ARYQaW5mb0Buc2EtZml4LmNvbTERMA8GA1UEChMIVGhpcmRtYW4xHzAdBgNVBAsU
FlJlc2VhcmNoICYgRGV2ZWxvcG1lbnQwHhcNMTQwNDA5MTIzNTEwWhcNMTkwNDA4
MTIzNTEwWjCBojETMBEGA1UEAxMKY29uZmVyZW5jZTENMAsGA1UECBMEZm9vNjEL
MAkGA1UEBhMCZmkxJTAjBgkqhkiG9w0BCQEWFnJvb3RAdHJhZGVzaG93aGVsbC5j
b20xHTAbBgNVBAoTFE15IE9yZ2FuaXphdGlvbiBOYW1lMSkwJwYDVQQLEyBTdWJ1
bml0IG9mIE15IExhcmdlIE9yZ2FuaXphdGlvbjCCAiIwDQYJKoZIhvcNAQEBBQAD
ggIPADCCAgoCggIBAMFKwbrlhFSFQFGchw8WpfMKye6L5MaVvwTIB3uyp07sOH3b
oDEoHLSThO8iYXVoSlef8+1iYTeyR22Fy29ngN7mckDL0W5z0djxoqYG4hcD77N/
PHNAVOwYPceni31bh1i6eJcKR4FbbFV8UI48MG39sSysYjuMiocmZISdZhMWHj22
IrtzGKQ98j88HZW5aDFCI0TYVAaWJoCGrmwu3Bxgr5XSHpVGqIm+gUE7x2Ijfk66
3E4xBVdriDPl68kbLF4skzM1ZNu0afYzVR4OMrsxY57YhNRIK4ADjS7ZkRg96Ksg
q61cXbrVn7hGEHWS9VxYDguy7x5rbMZJ7RUQh7cOjfXky5KXoC4QxIg3DrXZXu68
xT7o05yL/5mYNta/rnkbemBUcWm1zkGpXQw3OEdJuyidE46q+BiX4XIW9nUcFEQN
jTax5syn9bxkAJWowbQkEmLxdc14acxsp6ceB9X7UbGrtmOZnUAF/TjKb8rh7SJ7
QwUxPI5tZGRXE6kqYDVISZa0NVewtorFKOsU65gNb7N88MYviRlWG0PHg65YqXfV
IjaAfCzH0hepHStJFES6UjcKW7FsOGeoI4iEhYObbxf0bi42aQ/zw/8J/2D5MfsE
RrD+80cBtQrvANc1FkJj6Bwov2i9Bp8NjMqmkCwdDAje9zMCSBQPcG4rsJUnAgMB
AAGjbjBsMCAGA1UdEQQZMBeCFWFtc3RlcmRhbS5uc2EtZml4LmNvbTAJBgNVHRME
AjAAMBEGCWCGSAGG+EIBAQQEAwIGwDAdBgNVHSUEFjAUBggrBgEFBQcDAgYIKwYB
BQUHAwEwCwYDVR0PBAQDAgXgMA0GCSqGSIb3DQEBBQUAA4ICAQBXcj6k0HZlmu5Y
VWIa4G9gL1XWZ5AvgeU7Py2/oDISCGRqxzK2n5c8qyW8XrBpUGCUbHthotO1S2nB
WsdUD3zcV4OO78sXM37u71L4QEi79Q7cfqkCdUPF2OrV9fgeJ06pK3p+L7MyPYKD
sZGcOfOomrqCJMLa0/hb55uZUXVlxR7/RXbZCRSVpo34q/neCMDnLRbzVqCDMsLt
gmd9C+fmX0Lc+9xJIqkhjBcA8iCXN1xycLDlvgVOJ+KFPNk5bqD3eaw35DDzqvDn
GLa6eRM15HaOk288bXe871O0GwVjhD/T0Dq2L0DIKqFsuQ43mXbIL15d7lhLREpU
UxdXSKT/W7wZXbQyJ7fpkH9KCr1Axei/H7d/EerGXYJo2C/vbJ+A9DaCo6MEJJ5C
Ny/oLoUXilljsC33L81QM6lwaiKkbeGtTnEHEpkZI8pkTzi3RNSo0EjWkbdUF/Q0
hi3/6VrqLdjUPxfjHXOcYQ+EH9dIx+fI1mRKTEiKjYXEDa8BulCZfuFl9R6na1eH
Wl8OFrFx6+/0laGatNGlEm/T4Dx6t+8zDXlBxoat7/lOtSj3G4Vm7kQa+cDEVhSB
VCJBLhCeBTm3oUmyZ6v2SUmrpzRB3wxaStlZ7U/Uwe735pB5OL4B5jG5m2t/sx5R
n7J+SEDAzZ3q0EED9KBL0QyjRUDudA==
-----END CERTIFICATE-----
